libdtkcore.so.5 libdtkcore5 #MINVER#
 _Z19qInitResources_utilv@Base 5.0.3
 _Z22qCleanupResources_utilv@Base 5.0.3
 _ZGVZN3Dtk4Core11DLogManager8instanceEvE8instance@Base 5.0.3
 _ZN10QByteArrayD1Ev@Base 5.0.3
 _ZN10QByteArrayD2Ev@Base 5.0.3
 _ZN11DDBusCaller3argI7QStringEES_RKT_@Base 5.0.3
 _ZN11DDBusCaller4callEv@Base 5.0.3
 _ZN11DDBusCallerC1ERK7QStringSt10shared_ptrI9DDBusDataE@Base 5.0.3
 _ZN11DDBusCallerC2ERK7QStringSt10shared_ptrI9DDBusDataE@Base 5.0.3
 _ZN11DDBusCallerD1Ev@Base 5.0.3
 _ZN11DDBusCallerD2Ev@Base 5.0.3
 _ZN11DDBusSender4pathERK7QString@Base 5.0.3
 _ZN11DDBusSender4typeEN15QDBusConnection7BusTypeE@Base 5.0.3
 _ZN11DDBusSender6methodERK7QString@Base 5.0.3
 _ZN11DDBusSender7serviceERK7QString@Base 5.0.3
 _ZN11DDBusSender8propertyERK7QString@Base 5.0.3
 _ZN11DDBusSender9interfaceERK7QString@Base 5.0.3
 _ZN11DDBusSenderC1Ev@Base 5.0.3
 _ZN11DDBusSenderC2Ev@Base 5.0.3
 _ZN12QWeakPointerI7QObjectED1Ev@Base 5.0.3
 _ZN12QWeakPointerI7QObjectED2Ev@Base 5.0.3
 _ZN13DDBusProperty3getEv@Base 5.0.3
 _ZN13DDBusPropertyC1ERK7QStringSt10shared_ptrI9DDBusDataE@Base 5.0.3
 _ZN13DDBusPropertyC2ERK7QStringSt10shared_ptrI9DDBusDataE@Base 5.0.3
 _ZN14QScopedPointerIN3Dtk4Core23GSettingsBackendPrivateE21QScopedPointerDeleterIS2_EED1Ev@Base 5.0.3
 _ZN14QScopedPointerIN3Dtk4Core23GSettingsBackendPrivateE21QScopedPointerDeleterIS2_EED2Ev@Base 5.0.3
 _ZN15QVarLengthArrayIcLi4096EEC1Ei@Base 5.0.3
 _ZN15QVarLengthArrayIcLi4096EEC2Ei@Base 5.0.3
 _ZN3Dtk4Core10doUnescapeER7QStringRK5QHashI5QCharS4_E@Base 5.0.3
 _ZN3Dtk4Core11DLogManager12setLogFormatERK7QString@Base 5.0.3
 _ZN3Dtk4Core11DLogManager14getlogFilePathEv@Base 5.0.3
 _ZN3Dtk4Core11DLogManager14setlogFilePathERK7QString@Base 5.0.3
 _ZN3Dtk4Core11DLogManager19initConsoleAppenderEv@Base 5.0.3
 _ZN3Dtk4Core11DLogManager20registerFileAppenderEv@Base 5.0.3
 _ZN3Dtk4Core11DLogManager23initRollingFileAppenderEv@Base 5.0.3
 _ZN3Dtk4Core11DLogManager23registerConsoleAppenderEv@Base 5.0.3
 _ZN3Dtk4Core11DLogManager8joinPathERK7QStringS4_@Base 5.0.3
 _ZN3Dtk4Core11DLogManagerC1Ev@Base 5.0.3
 _ZN3Dtk4Core11DLogManagerC2Ev@Base 5.0.3
 _ZN3Dtk4Core11DLogManagerD1Ev@Base 5.0.3
 _ZN3Dtk4Core11DLogManagerD2Ev@Base 5.0.3
 _ZN3Dtk4Core11DVtableHook10copyVtableEPPy@Base 5.0.3
 _ZN3Dtk4Core11DVtableHook11originalFunEPKvy@Base 5.0.3
 _ZN3Dtk4Core11DVtableHook11resetVtableEPKv@Base 5.0.3
 _ZN3Dtk4Core11DVtableHook12ensureVtableEPKvSt8functionIFvvEE@Base 5.0.3
 _ZN3Dtk4Core11DVtableHook13resetVfptrFunEPKvy@Base 5.0.3
 _ZN3Dtk4Core11DVtableHook14objDestructFunE@Base 5.0.3
 _ZN3Dtk4Core11DVtableHook15autoCleanVtableEPKv@Base 5.0.3
 _ZN3Dtk4Core11DVtableHook15objToGhostVfptrE@Base 5.0.3
 _ZN3Dtk4Core11DVtableHook16clearGhostVtableEPKv@Base 5.0.3
 _ZN3Dtk4Core11DVtableHook16forceWriteMemoryEPvPKvm@Base 5.0.3
 _ZN3Dtk4Core11DVtableHook18objToOriginalVfptrE@Base 5.0.3
 _ZN3Dtk4Core11DVtableHook19getDestructFunIndexEPPySt8functionIFvvEE@Base 5.0.3
 _ZN3Dtk4Core11DVtableHook7resolveEPKc@Base 5.0.3
 _ZN3Dtk4Core11DVtableHook9hasVtableEPKv@Base 5.0.3
 _ZN3Dtk4Core11unqtifyNameERK7QString@Base 5.0.3
 _ZN3Dtk4Core12DFileWatcher11onFileMovedERK7QStringS4_S4_S4_@Base 5.0.3
 _ZN3Dtk4Core12DFileWatcher11qt_metacallEN11QMetaObject4CallEiPPv@Base 5.0.3
 _ZN3Dtk4Core12DFileWatcher11qt_metacastEPKc@Base 5.0.3
 _ZN3Dtk4Core12DFileWatcher12onFileClosedERK7QStringS4_@Base 5.0.3
 _ZN3Dtk4Core12DFileWatcher13onFileCreatedERK7QStringS4_@Base 5.0.3
 _ZN3Dtk4Core12DFileWatcher13onFileDeletedERK7QStringS4_@Base 5.0.3
 _ZN3Dtk4Core12DFileWatcher14onFileModifiedERK7QStringS4_@Base 5.0.3
 _ZN3Dtk4Core12DFileWatcher16staticMetaObjectE@Base 5.0.3
 _ZN3Dtk4Core12DFileWatcher22onFileAttributeChangedERK7QStringS4_@Base 5.0.3
 _ZN3Dtk4Core12DFileWatcherC1ERK7QStringP7QObject@Base 5.0.3
 _ZN3Dtk4Core12DFileWatcherC2ERK7QStringP7QObject@Base 5.0.3
 _ZN3Dtk4Core12DFileWatcherD0Ev@Base 5.0.3
 _ZN3Dtk4Core12DFileWatcherD1Ev@Base 5.0.3
 _ZN3Dtk4Core12DFileWatcherD2Ev@Base 5.0.3
 _ZN3Dtk4Core12FileAppender11setFileNameERK7QString@Base 5.0.3
 _ZN3Dtk4Core12FileAppender6appendERK9QDateTimeNS0_6Logger8LogLevelEPKciS8_RK7QStringSB_@Base 5.0.3
 _ZN3Dtk4Core12FileAppender8openFileEv@Base 5.0.3
 _ZN3Dtk4Core12FileAppender9closeFileEv@Base 5.0.3
 _ZN3Dtk4Core12FileAppenderC1ERK7QString@Base 5.0.3
 _ZN3Dtk4Core12FileAppenderC2ERK7QString@Base 5.0.3
 _ZN3Dtk4Core12FileAppenderD0Ev@Base 5.0.3
 _ZN3Dtk4Core12FileAppenderD1Ev@Base 5.0.3
 _ZN3Dtk4Core12FileAppenderD2Ev@Base 5.0.3
 _ZN3Dtk4Core13DDesktopEntry10escapeExecER7QString@Base 5.0.3
 _ZN3Dtk4Core13DDesktopEntry11removeEntryERK7QStringS4_@Base 5.0.3
 _ZN3Dtk4Core13DDesktopEntry11setRawValueERK7QStringS4_S4_@Base 5.0.3
 _ZN3Dtk4Core13DDesktopEntry12unescapeExecER7QString@Base 5.0.3
 _ZN3Dtk4Core13DDesktopEntry14setStringValueERK7QStringS4_S4_@Base 5.0.3
 _ZN3Dtk4Core13DDesktopEntry16staticMetaObjectE@Base 5.0.3
 _ZN3Dtk4Core13DDesktopEntry17setLocalizedValueERK7QStringS4_S4_S4_@Base 5.0.3
 _ZN3Dtk4Core13DDesktopEntry6escapeER7QString@Base 5.0.3
 _ZN3Dtk4Core13DDesktopEntry8unescapeER7QStringb@Base 5.0.3
 _ZN3Dtk4Core13DDesktopEntry9setStatusERKNS1_6StatusE@Base 5.0.3
 _ZN3Dtk4Core13DDesktopEntryC1ERK7QString@Base 5.0.3
 _ZN3Dtk4Core13DDesktopEntryC2ERK7QString@Base 5.0.3
 _ZN3Dtk4Core13DDesktopEntryD1Ev@Base 5.0.3
 _ZN3Dtk4Core13DDesktopEntryD2Ev@Base 5.0.3
 _ZN3Dtk4Core13DFileServices10showFolderE4QUrlRK7QString@Base 5.0.3
 _ZN3Dtk4Core13DFileServices10showFolderE7QStringRKS2_@Base 5.0.3
 _ZN3Dtk4Core13DFileServices11showFoldersE5QListI4QUrlERK7QString@Base 5.0.3
 _ZN3Dtk4Core13DFileServices11showFoldersE5QListI7QStringERKS3_@Base 5.0.3
 _ZN3Dtk4Core13DFileServices12errorMessageEv@Base 5.0.3
 _ZN3Dtk4Core13DFileServices12showFileItemE4QUrlRK7QString@Base 5.0.3
 _ZN3Dtk4Core13DFileServices12showFileItemE7QStringRKS2_@Base 5.0.3
 _ZN3Dtk4Core13DFileServices13showFileItemsE5QListI4QUrlERK7QString@Base 5.0.3
 _ZN3Dtk4Core13DFileServices13showFileItemsE5QListI7QStringERKS3_@Base 5.0.3
 _ZN3Dtk4Core13DFileServices21showFileItemPropertieE4QUrlRK7QString@Base 5.0.3
 _ZN3Dtk4Core13DFileServices21showFileItemPropertieE7QStringRKS2_@Base 5.0.3
 _ZN3Dtk4Core13DFileServices22showFileItemPropertiesE5QListI4QUrlERK7QString@Base 5.0.3
 _ZN3Dtk4Core13DFileServices22showFileItemPropertiesE5QListI7QStringERKS3_@Base 5.0.3
 _ZN3Dtk4Core13DFileServices5trashE4QUrl@Base 5.0.3
 _ZN3Dtk4Core13DFileServices5trashE5QListI4QUrlE@Base 5.0.3
 _ZN3Dtk4Core13DFileServices5trashE5QListI7QStringE@Base 5.0.3
 _ZN3Dtk4Core13DFileServices5trashE7QString@Base 5.0.3
 _ZN3Dtk4Core13DSecureStringC1ERK7QString@Base 5.0.3
 _ZN3Dtk4Core13DSecureStringC2ERK7QString@Base 5.0.3
 _ZN3Dtk4Core13DSecureStringD1Ev@Base 5.0.3
 _ZN3Dtk4Core13DSecureStringD2Ev@Base 5.0.3
 _ZN3Dtk4Core13DTrashManager10cleanTrashEv@Base 5.0.3
 _ZN3Dtk4Core13DTrashManager11moveToTrashERK7QStringb@Base 5.0.3
 _ZN3Dtk4Core13DTrashManager8instanceEv@Base 5.0.3
 _ZN3Dtk4Core13DTrashManagerC1Ev@Base 5.0.3
 _ZN3Dtk4Core13DTrashManagerC2Ev@Base 5.0.3
 _ZN3Dtk4Core13DTrashManagerD0Ev@Base 5.0.3
 _ZN3Dtk4Core13DTrashManagerD1Ev@Base 5.0.3
 _ZN3Dtk4Core13DTrashManagerD2Ev@Base 5.0.3
 _ZN3Dtk4Core13LoggerPrivate14globalInstanceE@Base 5.0.3
 _ZN3Dtk4Core13LoggerPrivate18globalInstanceLockE@Base 5.0.3
 _ZN3Dtk4Core14Chinese2PinyinERK7QString@Base 5.0.3
 _ZN3Dtk4Core14DObjectPrivateC1EPNS0_7DObjectE@Base 5.0.3
 _ZN3Dtk4Core14DObjectPrivateC2EPNS0_7DObjectE@Base 5.0.3
 _ZN3Dtk4Core14DObjectPrivateD0Ev@Base 5.0.3
 _ZN3Dtk4Core14DObjectPrivateD1Ev@Base 5.0.3
 _ZN3Dtk4Core14DObjectPrivateD2Ev@Base 5.0.3
 _ZN3Dtk4Core14DRecentManager10removeItemERK7QString@Base 5.0.3
 _ZN3Dtk4Core14DRecentManager11removeItemsERK11QStringList@Base 5.0.3
 _ZN3Dtk4Core14DRecentManager7addItemERK7QStringRNS0_11DRecentDataE@Base 5.0.3
 _ZN3Dtk4Core14DSettingsGroup11qt_metacallEN11QMetaObject4CallEiPPv@Base 5.0.3
 _ZN3Dtk4Core14DSettingsGroup11qt_metacastEPKc@Base 5.0.3
 _ZN3Dtk4Core14DSettingsGroup14setParentGroupE8QPointerIS1_E@Base 5.0.3
 _ZN3Dtk4Core14DSettingsGroup16staticMetaObjectE@Base 5.0.3
 _ZN3Dtk4Core14DSettingsGroup8fromJsonERK7QStringRK11QJsonObject@Base 5.0.3
 _ZN3Dtk4Core14DSettingsGroup9parseJsonERK7QStringRK11QJsonObject@Base 5.0.3
 _ZN3Dtk4Core14DSettingsGroupC1EP7QObject@Base 5.0.3
 _ZN3Dtk4Core14DSettingsGroupC2EP7QObject@Base 5.0.3
 _ZN3Dtk4Core14DSettingsGroupD0Ev@Base 5.0.3
 _ZN3Dtk4Core14DSettingsGroupD1Ev@Base 5.0.3
 _ZN3Dtk4Core14DSettingsGroupD2Ev@Base 5.0.3
 _ZN3Dtk4Core14DStandardPaths14findExecutableERK7QStringRK11QStringList@Base 5.0.3
 _ZN3Dtk4Core14DStandardPaths16writableLocationEN14QStandardPaths16StandardLocationE@Base 5.0.3
 _ZN3Dtk4Core14DStandardPaths17standardLocationsEN14QStandardPaths16StandardLocationE@Base 5.0.3
 _ZN3Dtk4Core14DStandardPaths6locateEN14QStandardPaths16StandardLocationERK7QString6QFlagsINS2_12LocateOptionEE@Base 5.0.3
 _ZN3Dtk4Core14DStandardPaths7setModeENS1_4ModeE@Base 5.0.3
 _ZN3Dtk4Core14DStandardPaths9locateAllEN14QStandardPaths16StandardLocationERK7QString6QFlagsINS2_12LocateOptionEE@Base 5.0.3
 _ZN3Dtk4Core14DTrashManager_D0Ev@Base 5.0.3
 _ZN3Dtk4Core14DTrashManager_D1Ev@Base 5.0.3
 _ZN3Dtk4Core14DTrashManager_D2Ev@Base 5.0.3
 _ZN3Dtk4Core14loggerInstanceEv@Base 5.0.3
 _ZN3Dtk4Core14parentPathListERK7QString@Base 5.0.3
 _ZN3Dtk4Core15ConsoleAppender24ignoreEnvironmentPatternEb@Base 5.0.3
 _ZN3Dtk4Core15ConsoleAppender6appendERK9QDateTimeNS0_6Logger8LogLevelEPKciS8_RK7QStringSB_@Base 5.0.3
 _ZN3Dtk4Core15ConsoleAppenderC1Ev@Base 5.0.3
 _ZN3Dtk4Core15ConsoleAppenderC2Ev@Base 5.0.3
 _ZN3Dtk4Core15ConsoleAppenderD0Ev@Base 5.0.3
 _ZN3Dtk4Core15ConsoleAppenderD1Ev@Base 5.0.3
 _ZN3Dtk4Core15ConsoleAppenderD2Ev@Base 5.0.3
 _ZN3Dtk4Core15DSettingsOption11dataChangedERK7QString8QVariant@Base 5.0.3
 _ZN3Dtk4Core15DSettingsOption11qt_metacallEN11QMetaObject4CallEiPPv@Base 5.0.3
 _ZN3Dtk4Core15DSettingsOption11qt_metacastEPKc@Base 5.0.3
 _ZN3Dtk4Core15DSettingsOption12valueChangedE8QVariant@Base 5.0.3
 _ZN3Dtk4Core15DSettingsOption14setParentGroupE8QPointerINS0_14DSettingsGroupEE@Base 5.0.3
 _ZN3Dtk4Core15DSettingsOption16staticMetaObjectE@Base 5.0.3
 _ZN3Dtk4Core15DSettingsOption7setDataERK7QString8QVariant@Base 5.0.3
 _ZN3Dtk4Core15DSettingsOption8fromJsonERK7QStringRK11QJsonObject@Base 5.0.3
 _ZN3Dtk4Core15DSettingsOption8setValueE8QVariant@Base 5.0.3
 _ZN3Dtk4Core15DSettingsOption9parseJsonERK7QStringRK11QJsonObject@Base 5.0.3
 _ZN3Dtk4Core15DSettingsOptionC1EP7QObject@Base 5.0.3
 _ZN3Dtk4Core15DSettingsOptionC2EP7QObject@Base 5.0.3
 _ZN3Dtk4Core15DSettingsOptionD0Ev@Base 5.0.3
 _ZN3Dtk4Core15DSettingsOptionD1Ev@Base 5.0.3
 _ZN3Dtk4Core15DSettingsOptionD2Ev@Base 5.0.3
 _ZN3Dtk4Core15DSysInfoPrivate13parseInfoFileER5QFile@Base 5.0.3
 _ZN3Dtk4Core15DSysInfoPrivate16ensureDeepinInfoEv@Base 5.0.3
 _ZN3Dtk4Core15DSysInfoPrivate17ensureReleaseInfoEv@Base 5.0.3
 _ZN3Dtk4Core15DSysInfoPrivate18ensureComputerInfoEv@Base 5.0.3
 _ZN3Dtk4Core15DSysInfoPrivateC1Ev@Base 5.0.3
 _ZN3Dtk4Core15DSysInfoPrivateC2Ev@Base 5.0.3
 _ZN3Dtk4Core15QSettingBackend11doSetOptionERK7QStringRK8QVariant@Base 5.0.3
 _ZN3Dtk4Core15QSettingBackend11qt_metacallEN11QMetaObject4CallEiPPv@Base 5.0.3
 _ZN3Dtk4Core15QSettingBackend11qt_metacastEPKc@Base 5.0.3
 _ZN3Dtk4Core15QSettingBackend16staticMetaObjectE@Base 5.0.3
 _ZN3Dtk4Core15QSettingBackend6doSyncEv@Base 5.0.3
 _ZN3Dtk4Core15QSettingBackendC1ERK7QStringP7QObject@Base 5.0.3
 _ZN3Dtk4Core15QSettingBackendC2ERK7QStringP7QObject@Base 5.0.3
 _ZN3Dtk4Core15QSettingBackendD0Ev@Base 5.0.3
 _ZN3Dtk4Core15QSettingBackendD1Ev@Base 5.0.3
 _ZN3Dtk4Core15QSettingBackendD2Ev@Base 5.0.3
 _ZN3Dtk4Core16AbstractAppender15setDetailsLevelENS0_6Logger8LogLevelE@Base 5.0.3
 _ZN3Dtk4Core16AbstractAppender15setDetailsLevelERK7QString@Base 5.0.3
 _ZN3Dtk4Core16AbstractAppender5writeERK9QDateTimeNS0_6Logger8LogLevelEPKciS8_RK7QStringSB_@Base 5.0.3
 _ZN3Dtk4Core16AbstractAppenderC1Ev@Base 5.0.3
 _ZN3Dtk4Core16AbstractAppenderC2Ev@Base 5.0.3
 _ZN3Dtk4Core16AbstractAppenderD0Ev@Base 5.0.3
 _ZN3Dtk4Core16AbstractAppenderD1Ev@Base 5.0.3
 _ZN3Dtk4Core16AbstractAppenderD2Ev@Base 5.0.3
 _ZN3Dtk4Core16DBaseFileWatcher10fileClosedERK4QUrl@Base 5.0.3
 _ZN3Dtk4Core16DBaseFileWatcher11fileDeletedERK4QUrl@Base 5.0.3
 _ZN3Dtk4Core16DBaseFileWatcher11ghostSignalERK4QUrlMS1_FvS4_ES4_@Base 5.0.3
 _ZN3Dtk4Core16DBaseFileWatcher11ghostSignalERK4QUrlMS1_FvS4_S4_ES4_S4_@Base 5.0.3
 _ZN3Dtk4Core16DBaseFileWatcher11qt_metacallEN11QMetaObject4CallEiPPv@Base 5.0.3
 _ZN3Dtk4Core16DBaseFileWatcher11qt_metacastEPKc@Base 5.0.3
 _ZN3Dtk4Core16DBaseFileWatcher11stopWatcherEv@Base 5.0.3
 _ZN3Dtk4Core16DBaseFileWatcher12fileModifiedERK4QUrl@Base 5.0.3
 _ZN3Dtk4Core16DBaseFileWatcher12startWatcherEv@Base 5.0.3
 _ZN3Dtk4Core16DBaseFileWatcher14restartWatcherEv@Base 5.0.3
 _ZN3Dtk4Core16DBaseFileWatcher14subfileCreatedERK4QUrl@Base 5.0.3
 _ZN3Dtk4Core16DBaseFileWatcher16staticMetaObjectE@Base 5.0.3
 _ZN3Dtk4Core16DBaseFileWatcher20fileAttributeChangedERK4QUrl@Base 5.0.3
 _ZN3Dtk4Core16DBaseFileWatcher24setEnabledSubfileWatcherERK4QUrlb@Base 5.0.3
 _ZN3Dtk4Core16DBaseFileWatcher9fileMovedERK4QUrlS4_@Base 5.0.3
 _ZN3Dtk4Core16DBaseFileWatcherC1ERNS0_23DBaseFileWatcherPrivateERK4QUrlP7QObject@Base 5.0.3
 _ZN3Dtk4Core16DBaseFileWatcherC2ERNS0_23DBaseFileWatcherPrivateERK4QUrlP7QObject@Base 5.0.3
 _ZN3Dtk4Core16DBaseFileWatcherD0Ev@Base 5.0.3
 _ZN3Dtk4Core16DBaseFileWatcherD1Ev@Base 5.0.3
 _ZN3Dtk4Core16DBaseFileWatcherD2Ev@Base 5.0.3
 _ZN3Dtk4Core16DSettingsBackend11qt_metacallEN11QMetaObject4CallEiPPv@Base 5.0.3
 _ZN3Dtk4Core16DSettingsBackend11qt_metacastEPKc@Base 5.0.3
 _ZN3Dtk4Core16DSettingsBackend13optionChangedERK7QStringRK8QVariant@Base 5.0.3
 _ZN3Dtk4Core16DSettingsBackend16staticMetaObjectE@Base 5.0.3
 _ZN3Dtk4Core16DSettingsBackend4syncEv@Base 5.0.3
 _ZN3Dtk4Core16DSettingsBackend9setOptionERK7QStringRK8QVariant@Base 5.0.3
 _ZN3Dtk4Core16GSettingsBackend11doSetOptionERK7QStringRK8QVariant@Base 5.0.3
 _ZN3Dtk4Core16GSettingsBackend11qt_metacallEN11QMetaObject4CallEiPPv@Base 5.0.3
 _ZN3Dtk4Core16GSettingsBackend11qt_metacastEPKc@Base 5.0.3
 _ZN3Dtk4Core16GSettingsBackend16staticMetaObjectE@Base 5.0.3
 _ZN3Dtk4Core16GSettingsBackend6doSyncEv@Base 5.0.3
 _ZN3Dtk4Core16GSettingsBackendC1EPNS0_9DSettingsEP7QObject@Base 5.0.3
 _ZN3Dtk4Core16GSettingsBackendC2EPNS0_9DSettingsEP7QObject@Base 5.0.3
 _ZN3Dtk4Core16GSettingsBackendD0Ev@Base 5.0.3
 _ZN3Dtk4Core16GSettingsBackendD1Ev@Base 5.0.3
 _ZN3Dtk4Core16GSettingsBackendD2Ev@Base 5.0.3
 _ZN3Dtk4Core16readLineFromDataERK10QByteArrayRiS4_S4_S4_@Base 5.0.3
 _ZN3Dtk4Core18DDiskSizeFormatter4rateEi@Base 5.0.3
 _ZN3Dtk4Core18DDiskSizeFormatterC1Ev@Base 5.0.3
 _ZN3Dtk4Core18DDiskSizeFormatterC2Ev@Base 5.0.3
 _ZN3Dtk4Core18DFileSystemWatcher10fileClosedERK7QStringS4_NS1_14QPrivateSignalE@Base 5.0.3
 _ZN3Dtk4Core18DFileSystemWatcher10removePathERK7QString@Base 5.0.3
 _ZN3Dtk4Core18DFileSystemWatcher11fileCreatedERK7QStringS4_NS1_14QPrivateSignalE@Base 5.0.3
 _ZN3Dtk4Core18DFileSystemWatcher11fileDeletedERK7QStringS4_NS1_14QPrivateSignalE@Base 5.0.3
 _ZN3Dtk4Core18DFileSystemWatcher11qt_metacallEN11QMetaObject4CallEiPPv@Base 5.0.3
 _ZN3Dtk4Core18DFileSystemWatcher11qt_metacastEPKc@Base 5.0.3
 _ZN3Dtk4Core18DFileSystemWatcher11removePathsERK11QStringList@Base 5.0.3
 _ZN3Dtk4Core18DFileSystemWatcher12fileModifiedERK7QStringS4_NS1_14QPrivateSignalE@Base 5.0.3
 _ZN3Dtk4Core18DFileSystemWatcher16staticMetaObjectE@Base 5.0.3
 _ZN3Dtk4Core18DFileSystemWatcher20fileAttributeChangedERK7QStringS4_NS1_14QPrivateSignalE@Base 5.0.3
 _ZN3Dtk4Core18DFileSystemWatcher7addPathERK7QString@Base 5.0.3
 _ZN3Dtk4Core18DFileSystemWatcher8addPathsERK11QStringList@Base 5.0.3
 _ZN3Dtk4Core18DFileSystemWatcher9fileMovedERK7QStringS4_S4_S4_NS1_14QPrivateSignalE@Base 5.0.3
 _ZN3Dtk4Core18DFileSystemWatcherC1EP7QObject@Base 5.0.3
 _ZN3Dtk4Core18DFileSystemWatcherC1ERK11QStringListP7QObject@Base 5.0.3
 _ZN3Dtk4Core18DFileSystemWatcherC2EP7QObject@Base 5.0.3
 _ZN3Dtk4Core18DFileSystemWatcherC2ERK11QStringListP7QObject@Base 5.0.3
 _ZN3Dtk4Core18DFileSystemWatcherD0Ev@Base 5.0.3
 _ZN3Dtk4Core18DFileSystemWatcherD1Ev@Base 5.0.3
 _ZN3Dtk4Core18DFileSystemWatcherD2Ev@Base 5.0.3
 _ZN3Dtk4Core18DTimeUnitFormatterC1Ev@Base 5.0.3
 _ZN3Dtk4Core18DTimeUnitFormatterC2Ev@Base 5.0.3
 _ZN3Dtk4Core18LoggerTimingHelper5startEPKcz@Base 5.0.3
 _ZN3Dtk4Core18LoggerTimingHelper5startERK7QString@Base 5.0.3
 _ZN3Dtk4Core18LoggerTimingHelperD1Ev@Base 5.0.3
 _ZN3Dtk4Core18LoggerTimingHelperD2Ev@Base 5.0.3
 _ZN3Dtk4Core19DFileWatcherManager10fileClosedERK7QString@Base 5.0.3
 _ZN3Dtk4Core19DFileWatcherManager11fileDeletedERK7QString@Base 5.0.3
 _ZN3Dtk4Core19DFileWatcherManager11qt_metacallEN11QMetaObject4CallEiPPv@Base 5.0.3
 _ZN3Dtk4Core19DFileWatcherManager11qt_metacastEPKc@Base 5.0.3
 _ZN3Dtk4Core19DFileWatcherManager12fileModifiedERK7QString@Base 5.0.3
 _ZN3Dtk4Core19DFileWatcherManager14subfileCreatedERK7QString@Base 5.0.3
 _ZN3Dtk4Core19DFileWatcherManager16staticMetaObjectE@Base 5.0.3
 _ZN3Dtk4Core19DFileWatcherManager20fileAttributeChangedERK7QString@Base 5.0.3
 _ZN3Dtk4Core19DFileWatcherManager3addERK7QString@Base 5.0.3
 _ZN3Dtk4Core19DFileWatcherManager6removeERK7QString@Base 5.0.3
 _ZN3Dtk4Core19DFileWatcherManager9fileMovedERK7QStringS4_@Base 5.0.3
 _ZN3Dtk4Core19DFileWatcherManagerC1EP7QObject@Base 5.0.3
 _ZN3Dtk4Core19DFileWatcherManagerC2EP7QObject@Base 5.0.3
 _ZN3Dtk4Core19DFileWatcherManagerD0Ev@Base 5.0.3
 _ZN3Dtk4Core19DFileWatcherManagerD1Ev@Base 5.0.3
 _ZN3Dtk4Core19DFileWatcherManagerD2Ev@Base 5.0.3
 _ZN3Dtk4Core19DFileWatcherPrivate10formatPathERK7QString@Base 5.0.3
 _ZN3Dtk4Core19DFileWatcherPrivate18_q_handleFileCloseERK7QStringS4_@Base 5.0.3
 _ZN3Dtk4Core19DFileWatcherPrivate18_q_handleFileMovedERK7QStringS4_S4_S4_@Base 5.0.3
 _ZN3Dtk4Core19DFileWatcherPrivate20_q_handleFileCreatedERK7QStringS4_@Base 5.0.3
 _ZN3Dtk4Core19DFileWatcherPrivate20_q_handleFileDeletedERK7QStringS4_@Base 5.0.3
 _ZN3Dtk4Core19DFileWatcherPrivate21_q_handleFileModifiedERK7QStringS4_@Base 5.0.3
 _ZN3Dtk4Core19DFileWatcherPrivate22filePathToWatcherCountE@Base 5.0.3
 _ZN3Dtk4Core19DFileWatcherPrivate29_q_handleFileAttributeChangedERK7QStringS4_@Base 5.0.3
 _ZN3Dtk4Core19DFileWatcherPrivate4stopEv@Base 5.0.3
 _ZN3Dtk4Core19DFileWatcherPrivate5startEv@Base 5.0.3
 _ZN3Dtk4Core19DFileWatcherPrivateD0Ev@Base 5.0.3
 _ZN3Dtk4Core19DFileWatcherPrivateD1Ev@Base 5.0.3
 _ZN3Dtk4Core19DFileWatcherPrivateD2Ev@Base 5.0.3
 _ZN3Dtk4Core19RollingFileAppender14removeOldFilesEv@Base 5.0.3
 _ZN3Dtk4Core19RollingFileAppender14setDatePatternENS1_11DatePatternE@Base 5.0.3
 _ZN3Dtk4Core19RollingFileAppender14setDatePatternERK7QString@Base 5.0.3
 _ZN3Dtk4Core19RollingFileAppender16computeFrequencyEv@Base 5.0.3
 _ZN3Dtk4Core19RollingFileAppender16setLogFilesLimitEi@Base 5.0.3
 _ZN3Dtk4Core19RollingFileAppender19computeRollOverTimeEv@Base 5.0.3
 _ZN3Dtk4Core19RollingFileAppender20setDatePatternStringERK7QString@Base 5.0.3
 _ZN3Dtk4Core19RollingFileAppender6appendERK9QDateTimeNS0_6Logger8LogLevelEPKciS8_RK7QStringSB_@Base 5.0.3
 _ZN3Dtk4Core19RollingFileAppender8rollOverEv@Base 5.0.3
 _ZN3Dtk4Core19RollingFileAppenderC1ERK7QString@Base 5.0.3
 _ZN3Dtk4Core19RollingFileAppenderC2ERK7QString@Base 5.0.3
 _ZN3Dtk4Core19RollingFileAppenderD0Ev@Base 5.0.3
 _ZN3Dtk4Core19RollingFileAppenderD1Ev@Base 5.0.3
 _ZN3Dtk4Core19RollingFileAppenderD2Ev@Base 5.0.3
 _ZN3Dtk4Core20DDesktopEntryPrivate20initSectionsFromDataERK10QByteArray@Base 5.0.3
 _ZN3Dtk4Core20DDesktopEntryPrivate3getERK7QStringS4_PS2_@Base 5.0.3
 _ZN3Dtk4Core20DDesktopEntryPrivate3setERK7QStringS4_S4_@Base 5.0.3
 _ZN3Dtk4Core20DDesktopEntryPrivate6removeERK7QStringS4_@Base 5.0.3
 _ZN3Dtk4Core20DDesktopEntryPrivate9fuzzyLoadEv@Base 5.0.3
 _ZN3Dtk4Core20DDesktopEntryPrivateC1ERK7QStringPNS0_13DDesktopEntryE@Base 5.0.3
 _ZN3Dtk4Core20DDesktopEntryPrivateC2ERK7QStringPNS0_13DDesktopEntryE@Base 5.0.3
 _ZN3Dtk4Core20DDesktopEntryPrivateD1Ev@Base 5.0.3
 _ZN3Dtk4Core20DDesktopEntryPrivateD2Ev@Base 5.0.3
 _ZN3Dtk4Core20DDesktopEntrySection23ensureSectionDataParsedEv@Base 5.0.3
 _ZN3Dtk4Core20DDesktopEntrySectionD1Ev@Base 5.0.3
 _ZN3Dtk4Core20DDesktopEntrySectionD2Ev@Base 5.0.3
 _ZN3Dtk4Core20DDesktopEntrySectionaSERKS1_@Base 5.0.3
 _ZN3Dtk4Core20DTrashManagerPrivate15removeFileOrDirERK7QString@Base 5.0.3
 _ZN3Dtk4Core20DTrashManagerPrivate18removeFromIteratorER12QDirIterator@Base 5.0.3
 _ZN3Dtk4Core20DTrashManagerPrivateD0Ev@Base 5.0.3
 _ZN3Dtk4Core20DTrashManagerPrivateD1Ev@Base 5.0.3
 _ZN3Dtk4Core20DTrashManagerPrivateD2Ev@Base 5.0.3
 _ZN3Dtk4Core21DSettingsGroupPrivate9parseJsonERK7QStringRK11QJsonObject@Base 5.0.3
 _ZN3Dtk4Core22AbstractStringAppender16qCleanupFuncinfoEPKc@Base 5.0.3
 _ZN3Dtk4Core22AbstractStringAppender17stripFunctionNameEPKc@Base 5.0.3
 _ZN3Dtk4Core22AbstractStringAppender9setFormatERK7QString@Base 5.0.3
 _ZN3Dtk4Core22AbstractStringAppenderC1Ev@Base 5.0.3
 _ZN3Dtk4Core22AbstractStringAppenderC2Ev@Base 5.0.3
 _ZN3Dtk4Core22AbstractStringAppenderD0Ev@Base 5.0.3
 _ZN3Dtk4Core22AbstractStringAppenderD1Ev@Base 5.0.3
 _ZN3Dtk4Core22AbstractStringAppenderD2Ev@Base 5.0.3
 _ZN3Dtk4Core22DAbstractUnitFormatterC1Ev@Base 5.0.3
 _ZN3Dtk4Core22DAbstractUnitFormatterC2Ev@Base 5.0.3
 _ZN3Dtk4Core22DAbstractUnitFormatterD1Ev@Base 5.0.3
 _ZN3Dtk4Core22DAbstractUnitFormatterD2Ev@Base 5.0.3
 _ZN3Dtk4Core22DSettingsOptionPrivate9parseJsonERK7QStringRK11QJsonObject@Base 5.0.3
 _ZN3Dtk4Core23DBaseFileWatcherPrivate11watcherListE@Base 5.0.3
 _ZN3Dtk4Core23DBaseFileWatcherPrivateC1EPNS0_16DBaseFileWatcherE@Base 5.0.3
 _ZN3Dtk4Core23DBaseFileWatcherPrivateC2EPNS0_16DBaseFileWatcherE@Base 5.0.3
 _ZN3Dtk4Core25DFileSystemWatcherPrivate11removePathsERK11QStringListPS2_S5_@Base 5.0.3
 _ZN3Dtk4Core25DFileSystemWatcherPrivate13onFileChangedERK7QStringb@Base 5.0.3
 _ZN3Dtk4Core25DFileSystemWatcherPrivate18_q_readFromInotifyEv@Base 5.0.3
 _ZN3Dtk4Core25DFileSystemWatcherPrivate18onDirectoryChangedERK7QStringb@Base 5.0.3
 _ZN3Dtk4Core25DFileSystemWatcherPrivate8addPathsERK11QStringListPS2_S5_@Base 5.0.3
 _ZN3Dtk4Core25DFileSystemWatcherPrivateC1EiPNS0_18DFileSystemWatcherE@Base 5.0.3
 _ZN3Dtk4Core25DFileSystemWatcherPrivateC2EiPNS0_18DFileSystemWatcherE@Base 5.0.3
 _ZN3Dtk4Core25DFileSystemWatcherPrivateD0Ev@Base 5.0.3
 _ZN3Dtk4Core25DFileSystemWatcherPrivateD1Ev@Base 5.0.3
 _ZN3Dtk4Core25DFileSystemWatcherPrivateD2Ev@Base 5.0.3
 _ZN3Dtk4Core26DFileWatcherManagerPrivateC1EPNS0_19DFileWatcherManagerE@Base 5.0.3
 _ZN3Dtk4Core26DFileWatcherManagerPrivateC2EPNS0_19DFileWatcherManagerE@Base 5.0.3
 _ZN3Dtk4Core26DFileWatcherManagerPrivateD0Ev@Base 5.0.3
 _ZN3Dtk4Core26DFileWatcherManagerPrivateD1Ev@Base 5.0.3
 _ZN3Dtk4Core26DFileWatcherManagerPrivateD2Ev@Base 5.0.3
 _ZN3Dtk4Core5DUtil13DNotifySender4callEv@Base 5.0.3
 _ZN3Dtk4Core5DUtil13DNotifySender5hintsERK4QMapI7QString8QVariantE@Base 5.0.3
 _ZN3Dtk4Core5DUtil13DNotifySender7actionsERK11QStringList@Base 5.0.3
 _ZN3Dtk4Core5DUtil13DNotifySender7appBodyERK7QString@Base 5.0.3
 _ZN3Dtk4Core5DUtil13DNotifySender7appIconERK7QString@Base 5.0.3
 _ZN3Dtk4Core5DUtil13DNotifySender7appNameERK7QString@Base 5.0.3
 _ZN3Dtk4Core5DUtil13DNotifySender7timeOutEi@Base 5.0.3
 _ZN3Dtk4Core5DUtil13DNotifySender9replaceIdEj@Base 5.0.3
 _ZN3Dtk4Core5DUtil13DNotifySenderC1ERK7QString@Base 5.0.3
 _ZN3Dtk4Core5DUtil13DNotifySenderC2ERK7QString@Base 5.0.3
 _ZN3Dtk4Core5DUtil18DExportedInterface11qt_metacallEN11QMetaObject4CallEiPPv@Base 5.0.3
 _ZN3Dtk4Core5DUtil18DExportedInterface11qt_metacastEPKc@Base 5.0.3
 _ZN3Dtk4Core5DUtil18DExportedInterface14registerActionERK7QStringS5_St8functionIF8QVariantS3_EE@Base 5.0.3
 _ZN3Dtk4Core5DUtil18DExportedInterface16staticMetaObjectE@Base 5.0.3
 _ZN3Dtk4Core5DUtil18DExportedInterfaceC1EP7QObject@Base 5.0.3
 _ZN3Dtk4Core5DUtil18DExportedInterfaceC2EP7QObject@Base 5.0.3
 _ZN3Dtk4Core5DUtil18DExportedInterfaceD0Ev@Base 5.0.3
 _ZN3Dtk4Core5DUtil18DExportedInterfaceD1Ev@Base 5.0.3
 _ZN3Dtk4Core5DUtil18DExportedInterfaceD2Ev@Base 5.0.3
 _ZN3Dtk4Core5DUtil25DExportedInterfacePrivate10actionHelpE7QStringi@Base 5.0.3
 _ZN3Dtk4Core5DUtil25DExportedInterfacePrivateC1EPNS1_18DExportedInterfaceE@Base 5.0.3
 _ZN3Dtk4Core5DUtil25DExportedInterfacePrivateC2EPNS1_18DExportedInterfaceE@Base 5.0.3
 _ZN3Dtk4Core5DUtil25DExportedInterfacePrivateD0Ev@Base 5.0.3
 _ZN3Dtk4Core5DUtil25DExportedInterfacePrivateD1Ev@Base 5.0.3
 _ZN3Dtk4Core5DUtil25DExportedInterfacePrivateD2Ev@Base 5.0.3
 _ZN3Dtk4Core5DUtil31DExportedInterfaceDBusInterface11qt_metacallEN11QMetaObject4CallEiPPv@Base 5.0.3
 _ZN3Dtk4Core5DUtil31DExportedInterfaceDBusInterface11qt_metacastEPKc@Base 5.0.3
 _ZN3Dtk4Core5DUtil31DExportedInterfaceDBusInterface16staticMetaObjectE@Base 5.0.3
 _ZN3Dtk4Core5DUtil31DExportedInterfaceDBusInterface4helpERK7QString@Base 5.0.3
 _ZN3Dtk4Core5DUtil31DExportedInterfaceDBusInterface4listEv@Base 5.0.3
 _ZN3Dtk4Core5DUtil31DExportedInterfaceDBusInterface6invokeE7QStringS3_@Base 5.0.3
 _ZN3Dtk4Core5DUtil31DExportedInterfaceDBusInterfaceC1EPNS1_25DExportedInterfacePrivateE@Base 5.0.3
 _ZN3Dtk4Core5DUtil31DExportedInterfaceDBusInterfaceC2EPNS1_25DExportedInterfacePrivateE@Base 5.0.3
 _ZN3Dtk4Core5DUtil31DExportedInterfaceDBusInterfaceD0Ev@Base 5.0.3
 _ZN3Dtk4Core5DUtil31DExportedInterfaceDBusInterfaceD1Ev@Base 5.0.3
 _ZN3Dtk4Core5DUtil31DExportedInterfaceDBusInterfaceD2Ev@Base 5.0.3
 _ZN3Dtk4Core6Logger11writeAssertEPKciS3_S3_@Base 5.0.3
 _ZN3Dtk4Core6Logger13levelToStringENS1_8LogLevelE@Base 5.0.3
 _ZN3Dtk4Core6Logger14globalInstanceEv@Base 5.0.3
 _ZN3Dtk4Core6Logger15levelFromStringERK7QString@Base 5.0.3
 _ZN3Dtk4Core6Logger16registerAppenderEPNS0_16AbstractAppenderE@Base 5.0.3
 _ZN3Dtk4Core6Logger18setDefaultCategoryERK7QString@Base 5.0.3
 _ZN3Dtk4Core6Logger19logToGlobalInstanceERK7QStringb@Base 5.0.3
 _ZN3Dtk4Core6Logger24registerCategoryAppenderERK7QStringPNS0_16AbstractAppenderE@Base 5.0.3
 _ZN3Dtk4Core6Logger5writeENS1_8LogLevelEPKciS4_S4_@Base 5.0.3
 _ZN3Dtk4Core6Logger5writeENS1_8LogLevelEPKciS4_S4_RK7QString@Base 5.0.3
 _ZN3Dtk4Core6Logger5writeERK9QDateTimeNS1_8LogLevelEPKciS7_S7_RK7QString@Base 5.0.3
 _ZN3Dtk4Core6Logger5writeERK9QDateTimeNS1_8LogLevelEPKciS7_S7_RK7QStringb@Base 5.0.3
 _ZN3Dtk4Core6LoggerC1ERK7QString@Base 5.0.3
 _ZN3Dtk4Core6LoggerC1Ev@Base 5.0.3
 _ZN3Dtk4Core6LoggerC2ERK7QString@Base 5.0.3
 _ZN3Dtk4Core6LoggerC2Ev@Base 5.0.3
 _ZN3Dtk4Core6LoggerD1Ev@Base 5.0.3
 _ZN3Dtk4Core6LoggerD2Ev@Base 5.0.3
 _ZN3Dtk4Core7DObjectC1EPS1_@Base 5.0.3
 _ZN3Dtk4Core7DObjectC1ERNS0_14DObjectPrivateEPS1_@Base 5.0.3
 _ZN3Dtk4Core7DObjectC2EPS1_@Base 5.0.3
 _ZN3Dtk4Core7DObjectC2ERNS0_14DObjectPrivateEPS1_@Base 5.0.3
 _ZN3Dtk4Core7DObjectD0Ev@Base 5.0.3
 _ZN3Dtk4Core7DObjectD1Ev@Base 5.0.3
 _ZN3Dtk4Core7DObjectD2Ev@Base 5.0.3
 _ZN3Dtk4Core8DPathBufC1ERK7QString@Base 5.0.3
 _ZN3Dtk4Core8DPathBufC1Ev@Base 5.0.3
 _ZN3Dtk4Core8DPathBufC2ERK7QString@Base 5.0.3
 _ZN3Dtk4Core8DPathBufC2Ev@Base 5.0.3
 _ZN3Dtk4Core8DSysInfo10deepinTypeEv@Base 5.0.3
 _ZN3Dtk4Core8DSysInfo11productTypeEv@Base 5.0.3
 _ZN3Dtk4Core8DSysInfo12computerNameEv@Base 5.0.3
 _ZN3Dtk4Core8DSysInfo12cpuModelNameEv@Base 5.0.3
 _ZN3Dtk4Core8DSysInfo13deepinEditionEv@Base 5.0.3
 _ZN3Dtk4Core8DSysInfo13deepinVersionEv@Base 5.0.3
 _ZN3Dtk4Core8DSysInfo14productVersionEv@Base 5.0.3
 _ZN3Dtk4Core8DSysInfo14systemDiskSizeEv@Base 5.0.3
 _ZN3Dtk4Core8DSysInfo15deepinCopyrightEv@Base 5.0.3
 _ZN3Dtk4Core8DSysInfo15memoryTotalSizeEv@Base 5.0.3
 _ZN3Dtk4Core8DSysInfo17productTypeStringEv@Base 5.0.3
 _ZN3Dtk4Core8DSysInfo18isCommunityEditionEv@Base 5.0.3
 _ZN3Dtk4Core8DSysInfo19distributionOrgLogoENS1_7OrgTypeENS1_8LogoTypeERK7QString@Base 5.0.3
 _ZN3Dtk4Core8DSysInfo19distributionOrgNameENS1_7OrgTypeERK7QLocale@Base 5.0.3
 _ZN3Dtk4Core8DSysInfo19memoryInstalledSizeEv@Base 5.0.3
 _ZN3Dtk4Core8DSysInfo19operatingSystemNameEv@Base 5.0.3
 _ZN3Dtk4Core8DSysInfo20distributionInfoPathEv@Base 5.0.3
 _ZN3Dtk4Core8DSysInfo21deepinDistributorLogoENS1_8LogoTypeERK7QString@Base 5.0.3
 _ZN3Dtk4Core8DSysInfo21deepinDistributorNameEv@Base 5.0.3
 _ZN3Dtk4Core8DSysInfo21deepinTypeDisplayNameERK7QLocale@Base 5.0.3
 _ZN3Dtk4Core8DSysInfo22distributionOrgWebsiteENS1_7OrgTypeE@Base 5.0.3
 _ZN3Dtk4Core8DSysInfo24deepinDistributorWebsiteEv@Base 5.0.3
 _ZN3Dtk4Core8DSysInfo26deepinDistributionInfoPathEv@Base 5.0.3
 _ZN3Dtk4Core8DSysInfo27distributionInfoSectionNameENS1_7OrgTypeE@Base 5.0.3
 _ZN3Dtk4Core8DSysInfo5isDDEEv@Base 5.0.3
 _ZN3Dtk4Core8DSysInfo8isDeepinEv@Base 5.0.3
 _ZN3Dtk4Core8doEscapeER7QStringRK5QHashI5QCharS4_E@Base 5.0.3
 _ZN3Dtk4Core9DSettings10setBackendEPNS0_16DSettingsBackendE@Base 5.0.3
 _ZN3Dtk4Core9DSettings11qt_metacallEN11QMetaObject4CallEiPPv@Base 5.0.3
 _ZN3Dtk4Core9DSettings11qt_metacastEPKc@Base 5.0.3
 _ZN3Dtk4Core9DSettings12fromJsonFileERK7QString@Base 5.0.3
 _ZN3Dtk4Core9DSettings12valueChangedERK7QStringRK8QVariant@Base 5.0.3
 _ZN3Dtk4Core9DSettings16staticMetaObjectE@Base 5.0.3
 _ZN3Dtk4Core9DSettings4syncEv@Base 5.0.3
 _ZN3Dtk4Core9DSettings5resetEv@Base 5.0.3
 _ZN3Dtk4Core9DSettings8fromJsonERK10QByteArray@Base 5.0.3
 _ZN3Dtk4Core9DSettings9loadValueEv@Base 5.0.3
 _ZN3Dtk4Core9DSettings9parseJsonERK10QByteArray@Base 5.0.3
 _ZN3Dtk4Core9DSettings9setOptionERK7QStringRK8QVariant@Base 5.0.3
 _ZN3Dtk4Core9DSettingsC1EP7QObject@Base 5.0.3
 _ZN3Dtk4Core9DSettingsC2EP7QObject@Base 5.0.3
 _ZN3Dtk4Core9DSettingsD0Ev@Base 5.0.3
 _ZN3Dtk4Core9DSettingsD1Ev@Base 5.0.3
 _ZN3Dtk4Core9DSettingsD2Ev@Base 5.0.3
 _ZN3Dtk4Core9LogDevice8readDataEPcx@Base 5.0.3
 _ZN3Dtk4Core9LogDevice9writeDataEPKcx@Base 5.0.3
 _ZN3Dtk4Core9LogDeviceD0Ev@Base 5.0.3
 _ZN3Dtk4Core9LogDeviceD1Ev@Base 5.0.3
 _ZN3Dtk4Core9LogDeviceD2Ev@Base 5.0.3
 _ZN3Dtk4Core9qtifyNameERK7QString@Base 5.0.3
 _ZN4QMapI7QString5QPairIS0_yEE13detach_helperEv@Base 5.0.3
 _ZN4QMapI7QString5QPairIS0_yEED1Ev@Base 5.0.3
 _ZN4QMapI7QString5QPairIS0_yEED2Ev@Base 5.0.3
 _ZN4QMapI7QString5QPairIS0_yEEixERKS0_@Base 5.0.3
 _ZN4QMapI7QString8QPointerIN3Dtk4Core15DSettingsOptionEEE13detach_helperEv@Base 5.0.3
 _ZN4QMapI7QString8QVariantE6insertERKS0_RKS1_@Base 5.0.3
 _ZN4QMapI7QString8QVariantEC1ERKS2_@Base 5.0.3
 _ZN4QMapI7QString8QVariantEC2ERKS2_@Base 5.0.3
 _ZN4QMapI7QStringN3Dtk4Core20DDesktopEntrySectionEE13detach_helperEv@Base 5.0.3
 _ZN4QMapI7QStringN3Dtk4Core20DDesktopEntrySectionEED1Ev@Base 5.0.3
 _ZN4QMapI7QStringN3Dtk4Core20DDesktopEntrySectionEED2Ev@Base 5.0.3
 _ZN4QMapI7QStringN3Dtk4Core20DDesktopEntrySectionEEixERKS0_@Base 5.0.3
 _ZN4QMapI7QStringPN3Dtk4Core12DFileWatcherEE13detach_helperEv@Base 5.0.3
 _ZN4QMapI7QStringS0_E13detach_helperEv@Base 5.0.3
 _ZN4QMapI7QStringS0_E6removeERKS0_@Base 5.0.3
 _ZN4QMapI7QStringS0_EC1ERKS1_@Base 5.0.3
 _ZN4QMapI7QStringS0_EC2ERKS1_@Base 5.0.3
 _ZN4QMapI7QStringS0_ED1Ev@Base 5.0.3
 _ZN4QMapI7QStringS0_ED2Ev@Base 5.0.3
 _ZN4QMapI7QStringS0_EixERKS0_@Base 5.0.3
 _ZN4QMapI7QStringiE13detach_helperEv@Base 5.0.3
 _ZN4QMapI7QStringiED1Ev@Base 5.0.3
 _ZN4QMapI7QStringiED2Ev@Base 5.0.3
 _ZN4QMapI9QDateTime7QStringED1Ev@Base 5.0.3
 _ZN4QMapI9QDateTime7QStringED2Ev@Base 5.0.3
 _ZN4QMapIPKvPyE13detach_helperEv@Base 5.0.3
 _ZN4QMapIPKvPyED1Ev@Base 5.0.3
 _ZN4QMapIPKvPyED2Ev@Base 5.0.3
 _ZN4QMapIPKvyE13detach_helperEv@Base 5.0.3
 _ZN4QMapIPKvyED1Ev@Base 5.0.3
 _ZN4QMapIPKvyED2Ev@Base 5.0.3
 _ZN4QMapIPPyS0_E13detach_helperEv@Base 5.0.3
 _ZN4QMapIPPyS0_ED1Ev@Base 5.0.3
 _ZN4QMapIPPyS0_ED2Ev@Base 5.0.3
 _ZN4QMapIi7QStringED1Ev@Base 5.0.3
 _ZN4QMapIi7QStringED2Ev@Base 5.0.3
 _ZN5QHashI5QCharS0_E11deleteNode2EPN9QHashData4NodeE@Base 5.0.3
 _ZN5QHashI5QCharS0_E13duplicateNodeEPN9QHashData4NodeEPv@Base 5.0.3
 _ZN5QHashI5QCharS0_E6insertERKS0_S3_@Base 5.0.3
 _ZN5QHashI5QCharS0_ED1Ev@Base 5.0.3
 _ZN5QHashI5QCharS0_ED2Ev@Base 5.0.3
 _ZN5QHashI7QString5QPairISt8functionIF8QVariantS0_EES0_EE11deleteNode2EPN9QHashData4NodeE@Base 5.0.3
 _ZN5QHashI7QString5QPairISt8functionIF8QVariantS0_EES0_EE13duplicateNodeEPN9QHashData4NodeEPv@Base 5.0.3
 _ZN5QHashI7QStringiE11deleteNode2EPN9QHashData4NodeE@Base 5.0.3
 _ZN5QHashI7QStringiE13duplicateNodeEPN9QHashData4NodeEPv@Base 5.0.3
 _ZN5QHashIPN3Dtk4Core16AbstractAppenderE15QHashDummyValueE11deleteNode2EPN9QHashData4NodeE@Base 5.0.3
 _ZN5QHashIPN3Dtk4Core16AbstractAppenderE15QHashDummyValueE13duplicateNodeEPN9QHashData4NodeEPv@Base 5.0.3
 _ZN5QHashIPN3Dtk4Core16AbstractAppenderE15QHashDummyValueED1Ev@Base 5.0.3
 _ZN5QHashIPN3Dtk4Core16AbstractAppenderE15QHashDummyValueED2Ev@Base 5.0.3
 _ZN5QHashIi15QHashDummyValueE11deleteNode2EPN9QHashData4NodeE@Base 5.0.3
 _ZN5QHashIi15QHashDummyValueE13duplicateNodeEPN9QHashData4NodeEPv@Base 5.0.3
 _ZN5QHashIi7QStringE11deleteNode2EPN9QHashData4NodeE@Base 5.0.3
 _ZN5QHashIi7QStringE13duplicateNodeEPN9QHashData4NodeEPv@Base 5.0.3
 _ZN5QHashIi7QStringE5eraseENS1_14const_iteratorE@Base 5.0.3
 _ZN5QHashIi7QStringED1Ev@Base 5.0.3
 _ZN5QHashIi7QStringED2Ev@Base 5.0.3
 _ZN5QHashIj7QStringE11deleteNode2EPN9QHashData4NodeE@Base 5.0.3
 _ZN5QHashIj7QStringE13duplicateNodeEPN9QHashData4NodeEPv@Base 5.0.3
 _ZN5QHashIj7QStringED1Ev@Base 5.0.3
 _ZN5QHashIj7QStringED2Ev@Base 5.0.3
 _ZN5QListI10QByteArrayED1Ev@Base 5.0.3
 _ZN5QListI10QByteArrayED2Ev@Base 5.0.3
 _ZN5QListI4QUrlE13detach_helperEi@Base 5.0.3
 _ZN5QListI4QUrlE18detach_helper_growEii@Base 5.0.3
 _ZN5QListI4QUrlE6appendERKS0_@Base 5.0.3
 _ZN5QListI4QUrlEC1ERKS1_@Base 5.0.3
 _ZN5QListI4QUrlEC2ERKS1_@Base 5.0.3
 _ZN5QListI4QUrlED1Ev@Base 5.0.3
 _ZN5QListI4QUrlED2Ev@Base 5.0.3
 _ZN5QListI5QPairI7QStringiEE13detach_helperEi@Base 5.0.3
 _ZN5QListI5QPairI7QStringiEE18detach_helper_growEii@Base 5.0.3
 _ZN5QListI5QPairI7QStringiEE6appendERKS2_@Base 5.0.3
 _ZN5QListI5QPairI7QStringiEED1Ev@Base 5.0.3
 _ZN5QListI5QPairI7QStringiEED2Ev@Base 5.0.3
 _ZN5QListI5QPairIdiEE18detach_helper_growEii@Base 5.0.3
 _ZN5QListI5QPairIdiEE6appendERKS1_@Base 5.0.3
 _ZN5QListI5QPairIdiEED1Ev@Base 5.0.3
 _ZN5QListI5QPairIdiEED2Ev@Base 5.0.3
 _ZN5QListI7QStringE13detach_helperEi@Base 5.0.3
 _ZN5QListI7QStringE18detach_helper_growEii@Base 5.0.3
 _ZN5QListI7QStringE6appendERKS0_@Base 5.0.3
 _ZN5QListI7QStringE7reserveEi@Base 5.0.3
 _ZN5QListI7QStringE9removeAllERKS0_@Base 5.0.3
 _ZN5QListI7QStringEC1ERKS1_@Base 5.0.3
 _ZN5QListI7QStringEC2ERKS1_@Base 5.0.3
 _ZN5QListI7QStringED1Ev@Base 5.0.3
 _ZN5QListI7QStringED2Ev@Base 5.0.3
 _ZN5QListI8QPointerIN3Dtk4Core14DSettingsGroupEEE13detach_helperEi@Base 5.0.3
 _ZN5QListI8QPointerIN3Dtk4Core14DSettingsGroupEEE18detach_helper_growEii@Base 5.0.3
 _ZN5QListI8QPointerIN3Dtk4Core14DSettingsGroupEEE6appendERKS4_@Base 5.0.3
 _ZN5QListI8QPointerIN3Dtk4Core15DSettingsOptionEEE13detach_helperEi@Base 5.0.3
 _ZN5QListI8QPointerIN3Dtk4Core15DSettingsOptionEEE18detach_helper_growEii@Base 5.0.3
 _ZN5QListI8QPointerIN3Dtk4Core15DSettingsOptionEEE6appendERKS4_@Base 5.0.3
 _ZN5QListI8QPointerIN3Dtk4Core15DSettingsOptionEEED1Ev@Base 5.0.3
 _ZN5QListI8QPointerIN3Dtk4Core15DSettingsOptionEEED2Ev@Base 5.0.3
 _ZN5QListI8QVariantE13detach_helperEi@Base 5.0.3
 _ZN5QListI8QVariantE18detach_helper_growEii@Base 5.0.3
 _ZN5QListI8QVariantE6appendERKS0_@Base 5.0.3
 _ZN5QListI8QVariantEC1ERKS1_@Base 5.0.3
 _ZN5QListI8QVariantEC2ERKS1_@Base 5.0.3
 _ZN5QListI8QVariantED1Ev@Base 5.0.3
 _ZN5QListI8QVariantED2Ev@Base 5.0.3
 _ZN5QListI9QFileInfoE13detach_helperEi@Base 5.0.3
 _ZN5QListI9QFileInfoED1Ev@Base 5.0.3
 _ZN5QListI9QFileInfoED2Ev@Base 5.0.3
 _ZN5QListIN3Dtk4Core8DSysInfo10DeepinTypeEE13detach_helperEi@Base 5.0.3
 _ZN5QListIN3Dtk4Core8DSysInfo10DeepinTypeEE18detach_helper_growEii@Base 5.0.3
 _ZN5QListIN3Dtk4Core8DSysInfo10DeepinTypeEE6appendERKS3_@Base 5.0.3
 _ZN5QListIN3Dtk4Core8DSysInfo10DeepinTypeEED1Ev@Base 5.0.3
 _ZN5QListIN3Dtk4Core8DSysInfo10DeepinTypeEED2Ev@Base 5.0.3
 _ZN5QListIP13inotify_eventE13detach_helperEi@Base 5.0.3
 _ZN5QListIP13inotify_eventE18detach_helper_growEii@Base 5.0.3
 _ZN5QListIP13inotify_eventE6appendERKS1_@Base 5.0.3
 _ZN5QListIP13inotify_eventED1Ev@Base 5.0.3
 _ZN5QListIP13inotify_eventED2Ev@Base 5.0.3
 _ZN5QListIPN3Dtk4Core16AbstractAppenderEE18detach_helper_growEii@Base 5.0.3
 _ZN5QListIPN3Dtk4Core16AbstractAppenderEE6appendERKS3_@Base 5.0.3
 _ZN5QListIPN3Dtk4Core16AbstractAppenderEEC1ERKS4_@Base 5.0.3
 _ZN5QListIPN3Dtk4Core16AbstractAppenderEEC2ERKS4_@Base 5.0.3
 _ZN5QListIPN3Dtk4Core16AbstractAppenderEED1Ev@Base 5.0.3
 _ZN5QListIPN3Dtk4Core16AbstractAppenderEED2Ev@Base 5.0.3
 _ZN5QListIPN3Dtk4Core16DBaseFileWatcherEE13detach_helperEi@Base 5.0.3
 _ZN5QListIPN3Dtk4Core16DBaseFileWatcherEE18detach_helper_growEii@Base 5.0.3
 _ZN5QListIPN3Dtk4Core16DBaseFileWatcherEE6appendERKS3_@Base 5.0.3
 _ZN5QListIPN3Dtk4Core16DBaseFileWatcherEE9removeOneERKS3_@Base 5.0.3
 _ZN5QListIPN3Dtk4Core16DBaseFileWatcherEED1Ev@Base 5.0.3
 _ZN5QListIPN3Dtk4Core16DBaseFileWatcherEED2Ev@Base 5.0.3
 _ZN5QPairISt8functionIF8QVariant7QStringEES2_ED1Ev@Base 5.0.3
 _ZN5QPairISt8functionIF8QVariant7QStringEES2_ED2Ev@Base 5.0.3
 _ZN7QStringC1EPKc@Base 5.0.3
 _ZN7QStringC2EPKc@Base 5.0.3
 _ZN7QStringD1Ev@Base 5.0.3
 _ZN7QStringD2Ev@Base 5.0.3
 _ZN8QMapDataI7QStringN3Dtk4Core20DDesktopEntrySectionEE10createNodeERKS0_RKS3_P8QMapNodeIS0_S3_Eb@Base 5.0.3
 _ZN8QMapDataI7QStringPN3Dtk4Core12DFileWatcherEE7destroyEv@Base 5.0.3
 _ZN8QMapDataI7QStringPN3Dtk4Core16AbstractAppenderEE7destroyEv@Base 5.0.3
 _ZN8QMapDataI7QStringbE7destroyEv@Base 5.0.3
 _ZN8QMapDataI7QStringiE7destroyEv@Base 5.0.3
 _ZN8QMapDataI9QDateTime7QStringE7destroyEv@Base 5.0.3
 _ZN8QMapDataIi7QStringE7destroyEv@Base 5.0.3
 _ZN8QMapNodeI7QString5QPairIS0_yEE14destroySubTreeEv@Base 5.0.3
 _ZN8QMapNodeI7QString8QPointerIN3Dtk4Core14DSettingsGroupEEE14destroySubTreeEv@Base 5.0.3
 _ZN8QMapNodeI7QString8QPointerIN3Dtk4Core15DSettingsOptionEEE14destroySubTreeEv@Base 5.0.3
 _ZN8QMapNodeI7QString8QVariantE14destroySubTreeEv@Base 5.0.3
 _ZN8QMapNodeI7QStringN3Dtk4Core20DDesktopEntrySectionEE14destroySubTreeEv@Base 5.0.3
 _ZN8QMapNodeI7QStringPN3Dtk4Core12DFileWatcherEE14destroySubTreeEv@Base 5.0.3
 _ZN8QMapNodeI7QStringPN3Dtk4Core16AbstractAppenderEE14destroySubTreeEv@Base 5.0.3
 _ZN8QMapNodeI7QStringS0_E14destroySubTreeEv@Base 5.0.3
 _ZN8QMapNodeI7QStringbE14destroySubTreeEv@Base 5.0.3
 _ZN8QMapNodeI7QStringiE14destroySubTreeEv@Base 5.0.3
 _ZN8QMapNodeI9QDateTime7QStringE14destroySubTreeEv@Base 5.0.3
 _ZN8QMapNodeIi7QStringE14destroySubTreeEv@Base 5.0.3
 _ZN9DDBusDataC1Ev@Base 5.0.3
 _ZN9DDBusDataC2Ev@Base 5.0.3
 _ZN9QtPrivate11QSlotObjectIMN3Dtk4Core12DFileWatcherEFvRK7QStringS6_ENS_4ListIJS6_S6_EEEvE4implEiPNS_15QSlotObjectBaseEP7QObjectPPvPb@Base 5.0.3
 _ZN9QtPrivate11QSlotObjectIMN3Dtk4Core12DFileWatcherEFvRK7QStringS6_S6_S6_ENS_4ListIJS6_S6_S6_S6_EEEvE4implEiPNS_15QSlotObjectBaseEP7QObjectPPvPb@Base 5.0.3
 _ZN9QtPrivate11QSlotObjectIMN3Dtk4Core16DSettingsBackendEFvRK7QStringRK8QVariantENS_4ListIJS6_S9_EEEvE4implEiPNS_15QSlotObjectBaseEP7QObjectPPvPb@Base 5.0.3
 _ZN9QtPrivate11QSlotObjectIMN3Dtk4Core16DSettingsBackendEFvvENS_4ListIJEEEvE4implEiPNS_15QSlotObjectBaseEP7QObjectPPvPb@Base 5.0.3
 _ZN9QtPrivate8RefCount3refEv@Base 5.0.3
 _ZNK3Dtk4Core12DFileWatcher10metaObjectEv@Base 5.0.3
 _ZNK3Dtk4Core12FileAppender4sizeEv@Base 5.0.3
 _ZNK3Dtk4Core12FileAppender8fileNameEv@Base 5.0.3
 _ZNK3Dtk4Core13DDesktopEntry11genericNameEv@Base 5.0.3
 _ZNK3Dtk4Core13DDesktopEntry11stringValueERK7QStringS4_S4_@Base 5.0.3
 _ZNK3Dtk4Core13DDesktopEntry14ddeDisplayNameEv@Base 5.0.3
 _ZNK3Dtk4Core13DDesktopEntry14localizedValueERK7QStringRK7QLocaleS4_S4_@Base 5.0.3
 _ZNK3Dtk4Core13DDesktopEntry14localizedValueERK7QStringS4_S4_S4_@Base 5.0.3
 _ZNK3Dtk4Core13DDesktopEntry15stringListValueERK7QStringS4_@Base 5.0.3
 _ZNK3Dtk4Core13DDesktopEntry4keysERK7QString@Base 5.0.3
 _ZNK3Dtk4Core13DDesktopEntry4nameEv@Base 5.0.3
 _ZNK3Dtk4Core13DDesktopEntry4saveEv@Base 5.0.3
 _ZNK3Dtk4Core13DDesktopEntry6statusEv@Base 5.0.3
 _ZNK3Dtk4Core13DDesktopEntry7commentEv@Base 5.0.3
 _ZNK3Dtk4Core13DDesktopEntry8containsERK7QStringS4_@Base 5.0.3
 _ZNK3Dtk4Core13DDesktopEntry8rawValueERK7QStringS4_S4_@Base 5.0.3
 _ZNK3Dtk4Core13DDesktopEntry9allGroupsEb@Base 5.0.3
 _ZNK3Dtk4Core13DTrashManager12trashIsEmptyEv@Base 5.0.3
 _ZNK3Dtk4Core14DSettingsGroup10childGroupERK7QString@Base 5.0.3
 _ZNK3Dtk4Core14DSettingsGroup10metaObjectEv@Base 5.0.3
 _ZNK3Dtk4Core14DSettingsGroup11childGroupsEv@Base 5.0.3
 _ZNK3Dtk4Core14DSettingsGroup11parentGroupEv@Base 5.0.3
 _ZNK3Dtk4Core14DSettingsGroup12childOptionsEv@Base 5.0.3
 _ZNK3Dtk4Core14DSettingsGroup3keyEv@Base 5.0.3
 _ZNK3Dtk4Core14DSettingsGroup4nameEv@Base 5.0.3
 _ZNK3Dtk4Core14DSettingsGroup6optionERK7QString@Base 5.0.3
 _ZNK3Dtk4Core14DSettingsGroup7optionsEv@Base 5.0.3
 _ZNK3Dtk4Core14DSettingsGroup8isHiddenEv@Base 5.0.3
 _ZNK3Dtk4Core15ConsoleAppender6formatEv@Base 5.0.3
 _ZNK3Dtk4Core15DSettingsOption10metaObjectEv@Base 5.0.3
 _ZNK3Dtk4Core15DSettingsOption11parentGroupEv@Base 5.0.3
 _ZNK3Dtk4Core15DSettingsOption12defaultValueEv@Base 5.0.3
 _ZNK3Dtk4Core15DSettingsOption3keyEv@Base 5.0.3
 _ZNK3Dtk4Core15DSettingsOption4dataERK7QString@Base 5.0.3
 _ZNK3Dtk4Core15DSettingsOption4nameEv@Base 5.0.3
 _ZNK3Dtk4Core15DSettingsOption5valueEv@Base 5.0.3
 _ZNK3Dtk4Core15DSettingsOption8canResetEv@Base 5.0.3
 _ZNK3Dtk4Core15DSettingsOption8isHiddenEv@Base 5.0.3
 _ZNK3Dtk4Core15DSettingsOption8viewTypeEv@Base 5.0.3
 _ZNK3Dtk4Core15QSettingBackend10metaObjectEv@Base 5.0.3
 _ZNK3Dtk4Core15QSettingBackend4keysEv@Base 5.0.3
 _ZNK3Dtk4Core15QSettingBackend9getOptionERK7QString@Base 5.0.3
 _ZNK3Dtk4Core16AbstractAppender12detailsLevelEv@Base 5.0.3
 _ZNK3Dtk4Core16DBaseFileWatcher10metaObjectEv@Base 5.0.3
 _ZNK3Dtk4Core16DBaseFileWatcher7fileUrlEv@Base 5.0.3
 _ZNK3Dtk4Core16DSettingsBackend10metaObjectEv@Base 5.0.3
 _ZNK3Dtk4Core16GSettingsBackend10metaObjectEv@Base 5.0.3
 _ZNK3Dtk4Core16GSettingsBackend4keysEv@Base 5.0.3
 _ZNK3Dtk4Core16GSettingsBackend9getOptionERK7QString@Base 5.0.3
 _ZNK3Dtk4Core17CuteMessageLogger5writeEPKcz@Base 5.0.3
 _ZNK3Dtk4Core17CuteMessageLogger5writeERK7QString@Base 5.0.3
 _ZNK3Dtk4Core17CuteMessageLogger5writeEv@Base 5.0.3
 _ZNK3Dtk4Core18DDiskSizeFormatter15unitConvertRateEi@Base 5.0.3
 _ZNK3Dtk4Core18DDiskSizeFormatter7unitMaxEv@Base 5.0.3
 _ZNK3Dtk4Core18DDiskSizeFormatter7unitMinEv@Base 5.0.3
 _ZNK3Dtk4Core18DDiskSizeFormatter7unitStrEi@Base 5.0.3
 _ZNK3Dtk4Core18DFileSystemWatcher10metaObjectEv@Base 5.0.3
 _ZNK3Dtk4Core18DFileSystemWatcher11directoriesEv@Base 5.0.3
 _ZNK3Dtk4Core18DFileSystemWatcher5filesEv@Base 5.0.3
 _ZNK3Dtk4Core18DTimeUnitFormatter15unitConvertRateEi@Base 5.0.3
 _ZNK3Dtk4Core18DTimeUnitFormatter7unitMaxEv@Base 5.0.3
 _ZNK3Dtk4Core18DTimeUnitFormatter7unitMinEv@Base 5.0.3
 _ZNK3Dtk4Core18DTimeUnitFormatter7unitStrEi@Base 5.0.3
 _ZNK3Dtk4Core19DFileWatcherManager10metaObjectEv@Base 5.0.3
 _ZNK3Dtk4Core19RollingFileAppender11datePatternEv@Base 5.0.3
 _ZNK3Dtk4Core19RollingFileAppender13logFilesLimitEv@Base 5.0.3
 _ZNK3Dtk4Core19RollingFileAppender17datePatternStringEv@Base 5.0.3
 _ZNK3Dtk4Core20DDesktopEntryPrivate10isWritableEv@Base 5.0.3
 _ZNK3Dtk4Core20DDesktopEntryPrivate10sectionPosERK7QString@Base 5.0.3
 _ZNK3Dtk4Core20DDesktopEntryPrivate4keysERK7QString@Base 5.0.3
 _ZNK3Dtk4Core20DDesktopEntryPrivate5writeER9QIODevice@Base 5.0.3
 _ZNK3Dtk4Core20DDesktopEntryPrivate8containsERK7QStringS4_@Base 5.0.3
 _ZNK3Dtk4Core20DDesktopEntryPrivate9setStatusERKNS0_13DDesktopEntry6StatusE@Base 5.0.3
 _ZNK3Dtk4Core22AbstractStringAppender15formattedStringERK9QDateTimeNS0_6Logger8LogLevelEPKciS8_RK7QStringSB_@Base 5.0.3
 _ZNK3Dtk4Core22AbstractStringAppender6formatEv@Base 5.0.3
 _ZNK3Dtk4Core22DAbstractUnitFormatter12unitValueMaxEi@Base 5.0.3
 _ZNK3Dtk4Core22DAbstractUnitFormatter12unitValueMinEi@Base 5.0.3
 _ZNK3Dtk4Core22DAbstractUnitFormatter16formatAsUnitListEdi@Base 5.0.3
 _ZNK3Dtk4Core22DAbstractUnitFormatter6formatEdi@Base 5.0.3
 _ZNK3Dtk4Core22DAbstractUnitFormatter8formatAsEdii@Base 5.0.3
 _ZNK3Dtk4Core5DUtil18DExportedInterface10metaObjectEv@Base 5.0.3
 _ZNK3Dtk4Core5DUtil18DExportedInterface6invokeERK7QStringS5_@Base 5.0.3
 _ZNK3Dtk4Core5DUtil31DExportedInterfaceDBusInterface10metaObjectEv@Base 5.0.3
 _ZNK3Dtk4Core6Logger15defaultCategoryEv@Base 5.0.3
 _ZNK3Dtk4Core9DSettings10metaObjectEv@Base 5.0.3
 _ZNK3Dtk4Core9DSettings4keysEv@Base 5.0.3
 _ZNK3Dtk4Core9DSettings4metaEv@Base 5.0.3
 _ZNK3Dtk4Core9DSettings5groupERK7QString@Base 5.0.3
 _ZNK3Dtk4Core9DSettings5valueERK7QString@Base 5.0.3
 _ZNK3Dtk4Core9DSettings6groupsEv@Base 5.0.3
 _ZNK3Dtk4Core9DSettings6optionERK7QString@Base 5.0.3
 _ZNK3Dtk4Core9DSettings7optionsEv@Base 5.0.3
 _ZNK3Dtk4Core9DSettings9getOptionERK7QString@Base 5.0.3
 _ZNK3Dtk4Core9DSettings9groupKeysEv@Base 5.0.3
 _ZNK4QMapI7QString8QPointerIN3Dtk4Core15DSettingsOptionEEE6valuesEv@Base 5.0.3
 _ZNK4QMapI7QStringN3Dtk4Core20DDesktopEntrySectionEE4keysEv@Base 5.0.3
 _ZNK4QMapIi7QStringE6valuesERKi@Base 5.0.3
 _ZNK5QHashI5QCharS0_E8findNodeERKS0_Pj@Base 5.0.3
 _ZNK5QHashI7QString5QPairISt8functionIF8QVariantS0_EES0_EE4keysEv@Base 5.0.3
 _ZNK5QHashI7QString5QPairISt8functionIF8QVariantS0_EES0_EE8findNodeERKS0_Pj@Base 5.0.3
 _ZNK5QHashI7QString5QPairISt8functionIF8QVariantS0_EES0_EE8findNodeERKS0_j@Base 5.0.3
 _ZNK5QHashI7QStringiE8findNodeERKS0_Pj@Base 5.0.3
 _ZNK5QHashI7QStringiE8findNodeERKS0_j@Base 5.0.3
 _ZNK5QHashIPN3Dtk4Core16AbstractAppenderE15QHashDummyValueE8findNodeERKS3_Pj@Base 5.0.3
 _ZNK5QHashIi15QHashDummyValueE8findNodeERKiPj@Base 5.0.3
 _ZNK5QHashIi7QStringE6valuesERKi@Base 5.0.3
 _ZNK5QHashIi7QStringE8findNodeERKiPj@Base 5.0.3
 _ZNK5QHashIj7QStringE8findNodeERKjPj@Base 5.0.3
 _ZNK5QListIPN3Dtk4Core16AbstractAppenderEE5toSetEv@Base 5.0.3
 _ZNK8QMapDataI7QString8QPointerIN3Dtk4Core14DSettingsGroupEEE8findNodeERKS0_@Base 5.0.3
 _ZNK8QMapDataI7QString8QPointerIN3Dtk4Core15DSettingsOptionEEE8findNodeERKS0_@Base 5.0.3
 _ZNK8QMapDataI7QString8QVariantE8findNodeERKS0_@Base 5.0.3
 _ZNK8QMapDataI7QStringN3Dtk4Core20DDesktopEntrySectionEE8findNodeERKS0_@Base 5.0.3
 _ZNK8QMapDataI7QStringPN3Dtk4Core12DFileWatcherEE8findNodeERKS0_@Base 5.0.3
 _ZNK8QMapDataI7QStringPN3Dtk4Core16AbstractAppenderEE8findNodeERKS0_@Base 5.0.3
 _ZNK8QMapDataI7QStringS0_E8findNodeERKS0_@Base 5.0.3
 _ZNK8QMapDataI7QStringiE8findNodeERKS0_@Base 5.0.3
 _ZNK8QMapDataIPKvPyE8findNodeERKS1_@Base 5.0.3
 _ZNK8QMapDataIPKvyE8findNodeERKS1_@Base 5.0.3
 _ZNK8QMapNodeI7QString5QPairIS0_yEE4copyEP8QMapDataIS0_S2_E@Base 5.0.3
 _ZNK8QMapNodeI7QString8QPointerIN3Dtk4Core14DSettingsGroupEEE4copyEP8QMapDataIS0_S5_E@Base 5.0.3
 _ZNK8QMapNodeI7QString8QPointerIN3Dtk4Core15DSettingsOptionEEE4copyEP8QMapDataIS0_S5_E@Base 5.0.3
 _ZNK8QMapNodeI7QString8QVariantE4copyEP8QMapDataIS0_S1_E@Base 5.0.3
 _ZNK8QMapNodeI7QStringN3Dtk4Core20DDesktopEntrySectionEE4copyEP8QMapDataIS0_S3_E@Base 5.0.3
 _ZNK8QMapNodeI7QStringPN3Dtk4Core12DFileWatcherEE4copyEP8QMapDataIS0_S4_E@Base 5.0.3
 _ZNK8QMapNodeI7QStringPN3Dtk4Core16AbstractAppenderEE4copyEP8QMapDataIS0_S4_E@Base 5.0.3
 _ZNK8QMapNodeI7QStringS0_E4copyEP8QMapDataIS0_S0_E@Base 5.0.3
 _ZNK8QMapNodeI7QStringbE4copyEP8QMapDataIS0_bE@Base 5.0.3
 _ZNK8QMapNodeI7QStringiE4copyEP8QMapDataIS0_iE@Base 5.0.3
 _ZNK8QMapNodeI9QDateTime7QStringE4copyEP8QMapDataIS0_S1_E@Base 5.0.3
 _ZNK8QMapNodeIPKvPyE4copyEP8QMapDataIS1_S2_E@Base 5.0.3
 _ZNK8QMapNodeIPKvyE4copyEP8QMapDataIS1_yE@Base 5.0.3
 _ZNK8QMapNodeIPPyS0_E4copyEP8QMapDataIS1_S0_E@Base 5.0.3
 _ZNK8QMapNodeIi7QStringE4copyEP8QMapDataIiS0_E@Base 5.0.3
 _ZNKSt5ctypeIcE8do_widenEc@Base 5.0.3
 _ZNSt16_Sp_counted_baseILN9__gnu_cxx12_Lock_policyE2EE10_M_releaseEv@Base 5.0.3
 _ZNSt23_Sp_counted_ptr_inplaceI9DDBusDataSaIS0_ELN9__gnu_cxx12_Lock_policyE2EE10_M_destroyEv@Base 5.0.3
 _ZNSt23_Sp_counted_ptr_inplaceI9DDBusDataSaIS0_ELN9__gnu_cxx12_Lock_policyE2EE10_M_disposeEv@Base 5.0.3
 _ZNSt23_Sp_counted_ptr_inplaceI9DDBusDataSaIS0_ELN9__gnu_cxx12_Lock_policyE2EE14_M_get_deleterERKSt9type_info@Base 5.0.3
 _ZNSt23_Sp_counted_ptr_inplaceI9DDBusDataSaIS0_ELN9__gnu_cxx12_Lock_policyE2EED0Ev@Base 5.0.3
 _ZNSt23_Sp_counted_ptr_inplaceI9DDBusDataSaIS0_ELN9__gnu_cxx12_Lock_policyE2EED1Ev@Base 5.0.3
 _ZNSt23_Sp_counted_ptr_inplaceI9DDBusDataSaIS0_ELN9__gnu_cxx12_Lock_policyE2EED2Ev@Base 5.0.3
 _ZNSt23_Sp_counted_ptr_inplaceIN3Dtk4Core5DUtil11DNotifyDataESaIS3_ELN9__gnu_cxx12_Lock_policyE2EE10_M_destroyEv@Base 5.0.3
 _ZNSt23_Sp_counted_ptr_inplaceIN3Dtk4Core5DUtil11DNotifyDataESaIS3_ELN9__gnu_cxx12_Lock_policyE2EE10_M_disposeEv@Base 5.0.3
 _ZNSt23_Sp_counted_ptr_inplaceIN3Dtk4Core5DUtil11DNotifyDataESaIS3_ELN9__gnu_cxx12_Lock_policyE2EE14_M_get_deleterERKSt9type_info@Base 5.0.3
 _ZNSt23_Sp_counted_ptr_inplaceIN3Dtk4Core5DUtil11DNotifyDataESaIS3_ELN9__gnu_cxx12_Lock_policyE2EED0Ev@Base 5.0.3
 _ZNSt23_Sp_counted_ptr_inplaceIN3Dtk4Core5DUtil11DNotifyDataESaIS3_ELN9__gnu_cxx12_Lock_policyE2EED1Ev@Base 5.0.3
 _ZNSt23_Sp_counted_ptr_inplaceIN3Dtk4Core5DUtil11DNotifyDataESaIS3_ELN9__gnu_cxx12_Lock_policyE2EED2Ev@Base 5.0.3
 _ZNSt8functionIF8QVariant7QStringEEC1ERKS3_@Base 5.0.3
 _ZNSt8functionIF8QVariant7QStringEEC2ERKS3_@Base 5.0.3
 _ZSt9__find_ifIPK7QStringN9__gnu_cxx5__ops16_Iter_equals_valIS1_EEET_S7_S7_T0_St26random_access_iterator_tag@Base 5.0.3
 _ZTI12QDBusContext@Base 5.0.3
 _ZTIN3Dtk4Core12DFileWatcherE@Base 5.0.3
 _ZTIN3Dtk4Core12FileAppenderE@Base 5.0.3
 _ZTIN3Dtk4Core13DTrashManagerE@Base 5.0.3
 _ZTIN3Dtk4Core14DObjectPrivateE@Base 5.0.3
 _ZTIN3Dtk4Core14DSettingsGroupE@Base 5.0.3
 _ZTIN3Dtk4Core14DTrashManager_E@Base 5.0.3
 _ZTIN3Dtk4Core15ConsoleAppenderE@Base 5.0.3
 _ZTIN3Dtk4Core15DSettingsOptionE@Base 5.0.3
 _ZTIN3Dtk4Core15QSettingBackendE@Base 5.0.3
 _ZTIN3Dtk4Core16AbstractAppenderE@Base 5.0.3
 _ZTIN3Dtk4Core16DBaseFileWatcherE@Base 5.0.3
 _ZTIN3Dtk4Core16DSettingsBackendE@Base 5.0.3
 _ZTIN3Dtk4Core16GSettingsBackendE@Base 5.0.3
 _ZTIN3Dtk4Core18DDiskSizeFormatterE@Base 5.0.3
 _ZTIN3Dtk4Core18DFileSystemWatcherE@Base 5.0.3
 _ZTIN3Dtk4Core18DTimeUnitFormatterE@Base 5.0.3
 _ZTIN3Dtk4Core19DFileWatcherManagerE@Base 5.0.3
 _ZTIN3Dtk4Core19DFileWatcherPrivateE@Base 5.0.3
 _ZTIN3Dtk4Core19RollingFileAppenderE@Base 5.0.3
 _ZTIN3Dtk4Core20DTrashManagerPrivateE@Base 5.0.3
 _ZTIN3Dtk4Core22AbstractStringAppenderE@Base 5.0.3
 _ZTIN3Dtk4Core22DAbstractUnitFormatterE@Base 5.0.3
 _ZTIN3Dtk4Core23DBaseFileWatcherPrivateE@Base 5.0.3
 _ZTIN3Dtk4Core25DFileSystemWatcherPrivateE@Base 5.0.3
 _ZTIN3Dtk4Core26DFileWatcherManagerPrivateE@Base 5.0.3
 _ZTIN3Dtk4Core5DUtil18DExportedInterfaceE@Base 5.0.3
 _ZTIN3Dtk4Core5DUtil25DExportedInterfacePrivateE@Base 5.0.3
 _ZTIN3Dtk4Core5DUtil31DExportedInterfaceDBusInterfaceE@Base 5.0.3
 _ZTIN3Dtk4Core7DObjectE@Base 5.0.3
 _ZTIN3Dtk4Core9DSettingsE@Base 5.0.3
 _ZTIN3Dtk4Core9LogDeviceE@Base 5.0.3
 _ZTISt11_Mutex_baseILN9__gnu_cxx12_Lock_policyE2EE@Base 5.0.3
 _ZTISt16_Sp_counted_baseILN9__gnu_cxx12_Lock_policyE2EE@Base 5.0.3
 _ZTISt23_Sp_counted_ptr_inplaceI9DDBusDataSaIS0_ELN9__gnu_cxx12_Lock_policyE2EE@Base 5.0.3
 _ZTISt23_Sp_counted_ptr_inplaceIN3Dtk4Core5DUtil11DNotifyDataESaIS3_ELN9__gnu_cxx12_Lock_policyE2EE@Base 5.0.3
 _ZTS12QDBusContext@Base 5.0.3
 _ZTSN3Dtk4Core12DFileWatcherE@Base 5.0.3
 _ZTSN3Dtk4Core12FileAppenderE@Base 5.0.3
 _ZTSN3Dtk4Core13DTrashManagerE@Base 5.0.3
 _ZTSN3Dtk4Core14DObjectPrivateE@Base 5.0.3
 _ZTSN3Dtk4Core14DSettingsGroupE@Base 5.0.3
 _ZTSN3Dtk4Core14DTrashManager_E@Base 5.0.3
 _ZTSN3Dtk4Core15ConsoleAppenderE@Base 5.0.3
 _ZTSN3Dtk4Core15DSettingsOptionE@Base 5.0.3
 _ZTSN3Dtk4Core15QSettingBackendE@Base 5.0.3
 _ZTSN3Dtk4Core16AbstractAppenderE@Base 5.0.3
 _ZTSN3Dtk4Core16DBaseFileWatcherE@Base 5.0.3
 _ZTSN3Dtk4Core16DSettingsBackendE@Base 5.0.3
 _ZTSN3Dtk4Core16GSettingsBackendE@Base 5.0.3
 _ZTSN3Dtk4Core18DDiskSizeFormatterE@Base 5.0.3
 _ZTSN3Dtk4Core18DFileSystemWatcherE@Base 5.0.3
 _ZTSN3Dtk4Core18DTimeUnitFormatterE@Base 5.0.3
 _ZTSN3Dtk4Core19DFileWatcherManagerE@Base 5.0.3
 _ZTSN3Dtk4Core19DFileWatcherPrivateE@Base 5.0.3
 _ZTSN3Dtk4Core19RollingFileAppenderE@Base 5.0.3
 _ZTSN3Dtk4Core20DTrashManagerPrivateE@Base 5.0.3
 _ZTSN3Dtk4Core22AbstractStringAppenderE@Base 5.0.3
 _ZTSN3Dtk4Core22DAbstractUnitFormatterE@Base 5.0.3
 _ZTSN3Dtk4Core23DBaseFileWatcherPrivateE@Base 5.0.3
 _ZTSN3Dtk4Core25DFileSystemWatcherPrivateE@Base 5.0.3
 _ZTSN3Dtk4Core26DFileWatcherManagerPrivateE@Base 5.0.3
 _ZTSN3Dtk4Core5DUtil18DExportedInterfaceE@Base 5.0.3
 _ZTSN3Dtk4Core5DUtil25DExportedInterfacePrivateE@Base 5.0.3
 _ZTSN3Dtk4Core5DUtil31DExportedInterfaceDBusInterfaceE@Base 5.0.3
 _ZTSN3Dtk4Core7DObjectE@Base 5.0.3
 _ZTSN3Dtk4Core9DSettingsE@Base 5.0.3
 _ZTSN3Dtk4Core9LogDeviceE@Base 5.0.3
 _ZTSSt11_Mutex_baseILN9__gnu_cxx12_Lock_policyE2EE@Base 5.0.3
 _ZTSSt16_Sp_counted_baseILN9__gnu_cxx12_Lock_policyE2EE@Base 5.0.3
 _ZTSSt19_Sp_make_shared_tag@Base 5.0.3
 _ZTSSt23_Sp_counted_ptr_inplaceI9DDBusDataSaIS0_ELN9__gnu_cxx12_Lock_policyE2EE@Base 5.0.3
 _ZTSSt23_Sp_counted_ptr_inplaceIN3Dtk4Core5DUtil11DNotifyDataESaIS3_ELN9__gnu_cxx12_Lock_policyE2EE@Base 5.0.3
 _ZTVN3Dtk4Core12DFileWatcherE@Base 5.0.3
 _ZTVN3Dtk4Core12FileAppenderE@Base 5.0.3
 _ZTVN3Dtk4Core13DTrashManagerE@Base 5.0.3
 _ZTVN3Dtk4Core14DObjectPrivateE@Base 5.0.3
 _ZTVN3Dtk4Core14DSettingsGroupE@Base 5.0.3
 _ZTVN3Dtk4Core14DTrashManager_E@Base 5.0.3
 _ZTVN3Dtk4Core15ConsoleAppenderE@Base 5.0.3
 _ZTVN3Dtk4Core15DSettingsOptionE@Base 5.0.3
 _ZTVN3Dtk4Core15QSettingBackendE@Base 5.0.3
 _ZTVN3Dtk4Core16AbstractAppenderE@Base 5.0.3
 _ZTVN3Dtk4Core16DBaseFileWatcherE@Base 5.0.3
 _ZTVN3Dtk4Core16DSettingsBackendE@Base 5.0.3
 _ZTVN3Dtk4Core16GSettingsBackendE@Base 5.0.3
 _ZTVN3Dtk4Core18DDiskSizeFormatterE@Base 5.0.3
 _ZTVN3Dtk4Core18DFileSystemWatcherE@Base 5.0.3
 _ZTVN3Dtk4Core18DTimeUnitFormatterE@Base 5.0.3
 _ZTVN3Dtk4Core19DFileWatcherManagerE@Base 5.0.3
 _ZTVN3Dtk4Core19DFileWatcherPrivateE@Base 5.0.3
 _ZTVN3Dtk4Core19RollingFileAppenderE@Base 5.0.3
 _ZTVN3Dtk4Core20DTrashManagerPrivateE@Base 5.0.3
 _ZTVN3Dtk4Core22AbstractStringAppenderE@Base 5.0.3
 _ZTVN3Dtk4Core22DAbstractUnitFormatterE@Base 5.0.3
 _ZTVN3Dtk4Core23DBaseFileWatcherPrivateE@Base 5.0.3
 _ZTVN3Dtk4Core25DFileSystemWatcherPrivateE@Base 5.0.3
 _ZTVN3Dtk4Core26DFileWatcherManagerPrivateE@Base 5.0.3
 _ZTVN3Dtk4Core5DUtil18DExportedInterfaceE@Base 5.0.3
 _ZTVN3Dtk4Core5DUtil25DExportedInterfacePrivateE@Base 5.0.3
 _ZTVN3Dtk4Core5DUtil31DExportedInterfaceDBusInterfaceE@Base 5.0.3
 _ZTVN3Dtk4Core7DObjectE@Base 5.0.3
 _ZTVN3Dtk4Core9DSettingsE@Base 5.0.3
 _ZTVN3Dtk4Core9LogDeviceE@Base 5.0.3
 _ZTVSt23_Sp_counted_ptr_inplaceI9DDBusDataSaIS0_ELN9__gnu_cxx12_Lock_policyE2EE@Base 5.0.3
 _ZTVSt23_Sp_counted_ptr_inplaceIN3Dtk4Core5DUtil11DNotifyDataESaIS3_ELN9__gnu_cxx12_Lock_policyE2EE@Base 5.0.3
 _ZThn16_N3Dtk4Core12DFileWatcherD0Ev@Base 5.0.3
 _ZThn16_N3Dtk4Core12DFileWatcherD1Ev@Base 5.0.3
 _ZThn16_N3Dtk4Core13DTrashManagerD0Ev@Base 5.0.3
 _ZThn16_N3Dtk4Core13DTrashManagerD1Ev@Base 5.0.3
 _ZThn16_N3Dtk4Core14DTrashManager_D0Ev@Base 5.0.3
 _ZThn16_N3Dtk4Core14DTrashManager_D1Ev@Base 5.0.3
 _ZThn16_N3Dtk4Core16DBaseFileWatcherD0Ev@Base 5.0.3
 _ZThn16_N3Dtk4Core16DBaseFileWatcherD1Ev@Base 5.0.3
 _ZThn16_N3Dtk4Core18DFileSystemWatcherD0Ev@Base 5.0.3
 _ZThn16_N3Dtk4Core18DFileSystemWatcherD1Ev@Base 5.0.3
 _ZThn16_N3Dtk4Core19DFileWatcherManagerD0Ev@Base 5.0.3
 _ZThn16_N3Dtk4Core19DFileWatcherManagerD1Ev@Base 5.0.3
 _ZThn16_N3Dtk4Core5DUtil18DExportedInterfaceD0Ev@Base 5.0.3
 _ZThn16_N3Dtk4Core5DUtil18DExportedInterfaceD1Ev@Base 5.0.3
 _ZZN3Dtk4Core11DLogManager8instanceEvE8instance@Base 5.0.3
 _ZZN9QtPrivate15ConnectionTypesINS_4ListIJRK7QStringRK8QVariantEEELb1EE5typesEvE1t@Base 5.0.3
 _ZZNSt19_Sp_make_shared_tag5_S_tiEvE5__tag@Base 5.0.3
