# SymbolsHelper-Confirmed: 2.0.7.1 amd64
libdtkcore.so.2 libdtkcore2 #MINVER#
 _Z19qInitResources_utilv@Base 2.0.7.1
 _Z22qCleanupResources_utilv@Base 2.0.7.1
 _ZGVZN3Dtk4Core11DLogManager8instanceEvE8instance@Base 2.0.7.1
 _ZN10QByteArrayD1Ev@Base 2.0.7.1
 _ZN10QByteArrayD2Ev@Base 2.0.7.1
 (optional=templinst)_ZN12QWeakPointerI7QObjectED1Ev@Base 2.0.7.1
 (optional=templinst)_ZN12QWeakPointerI7QObjectED2Ev@Base 2.0.7.1
 (optional=templinst)_ZN14QScopedPointerIN3Dtk4Core23GSettingsBackendPrivateE21QScopedPointerDeleterIS2_EED1Ev@Base 2.0.7.1
 (optional=templinst)_ZN14QScopedPointerIN3Dtk4Core23GSettingsBackendPrivateE21QScopedPointerDeleterIS2_EED2Ev@Base 2.0.7.1
 (optional=templinst)_ZN15QVarLengthArrayIcLi4096EEC1Ei@Base 2.0.7.1
 (optional=templinst)_ZN15QVarLengthArrayIcLi4096EEC2Ei@Base 2.0.7.1
 _ZN3Dtk4Core11DLogManager12setLogFormatERK7QString@Base 2.0.7.1
 _ZN3Dtk4Core11DLogManager14getlogFilePathEv@Base 2.0.7.1
 _ZN3Dtk4Core11DLogManager19initConsoleAppenderEv@Base 2.0.7.1
 _ZN3Dtk4Core11DLogManager20registerFileAppenderEv@Base 2.0.7.1
 _ZN3Dtk4Core11DLogManager23initRollingFileAppenderEv@Base 2.0.7.1
 _ZN3Dtk4Core11DLogManager23registerConsoleAppenderEv@Base 2.0.7.1
 _ZN3Dtk4Core11DLogManager8joinPathERK7QStringS4_@Base 2.0.7.1
 _ZN3Dtk4Core11DLogManagerC1Ev@Base 2.0.7.1
 _ZN3Dtk4Core11DLogManagerC2Ev@Base 2.0.7.1
 _ZN3Dtk4Core11DLogManagerD1Ev@Base 2.0.7.1
 _ZN3Dtk4Core11DLogManagerD2Ev@Base 2.0.7.1
 _ZN3Dtk4Core11unqtifyNameERK7QString@Base 2.0.7.1
 _ZN3Dtk4Core12DFileWatcher11onFileMovedERK7QStringS4_S4_S4_@Base 2.0.7.1
 _ZN3Dtk4Core12DFileWatcher11qt_metacallEN11QMetaObject4CallEiPPv@Base 2.0.7.1
 _ZN3Dtk4Core12DFileWatcher11qt_metacastEPKc@Base 2.0.7.1
 _ZN3Dtk4Core12DFileWatcher12onFileClosedERK7QStringS4_@Base 2.0.7.1
 _ZN3Dtk4Core12DFileWatcher13onFileCreatedERK7QStringS4_@Base 2.0.7.1
 _ZN3Dtk4Core12DFileWatcher13onFileDeletedERK7QStringS4_@Base 2.0.7.1
 _ZN3Dtk4Core12DFileWatcher14onFileModifiedERK7QStringS4_@Base 2.0.7.1
 _ZN3Dtk4Core12DFileWatcher16staticMetaObjectE@Base 2.0.7.1
 _ZN3Dtk4Core12DFileWatcher22onFileAttributeChangedERK7QStringS4_@Base 2.0.7.1
 _ZN3Dtk4Core12DFileWatcherC1ERK7QStringP7QObject@Base 2.0.7.1
 _ZN3Dtk4Core12DFileWatcherC2ERK7QStringP7QObject@Base 2.0.7.1
 _ZN3Dtk4Core12DFileWatcherD0Ev@Base 2.0.7.1
 _ZN3Dtk4Core12DFileWatcherD1Ev@Base 2.0.7.1
 _ZN3Dtk4Core12DFileWatcherD2Ev@Base 2.0.7.1
 _ZN3Dtk4Core12FileAppender11setFileNameERK7QString@Base 2.0.7.1
 _ZN3Dtk4Core12FileAppender6appendERK9QDateTimeNS0_6Logger8LogLevelEPKciS8_RK7QStringSB_@Base 2.0.7.1
 _ZN3Dtk4Core12FileAppender8openFileEv@Base 2.0.7.1
 _ZN3Dtk4Core12FileAppender9closeFileEv@Base 2.0.7.1
 _ZN3Dtk4Core12FileAppenderC1ERK7QString@Base 2.0.7.1
 _ZN3Dtk4Core12FileAppenderC2ERK7QString@Base 2.0.7.1
 _ZN3Dtk4Core12FileAppenderD0Ev@Base 2.0.7.1
 _ZN3Dtk4Core12FileAppenderD1Ev@Base 2.0.7.1
 _ZN3Dtk4Core12FileAppenderD2Ev@Base 2.0.7.1
 _ZN3Dtk4Core13LoggerPrivate14globalInstanceE@Base 2.0.7.1
 _ZN3Dtk4Core13LoggerPrivate18globalInstanceLockE@Base 2.0.7.1
 _ZN3Dtk4Core14DObjectPrivateC1EPNS0_7DObjectE@Base 2.0.7.1
 _ZN3Dtk4Core14DObjectPrivateC2EPNS0_7DObjectE@Base 2.0.7.1
 _ZN3Dtk4Core14DObjectPrivateD0Ev@Base 2.0.7.1
 _ZN3Dtk4Core14DObjectPrivateD1Ev@Base 2.0.7.1
 _ZN3Dtk4Core14DObjectPrivateD2Ev@Base 2.0.7.1
 _ZN3Dtk4Core14DSettingsGroup11qt_metacallEN11QMetaObject4CallEiPPv@Base 2.0.7.1
 _ZN3Dtk4Core14DSettingsGroup11qt_metacastEPKc@Base 2.0.7.1
 _ZN3Dtk4Core14DSettingsGroup14setParentGroupE8QPointerIS1_E@Base 2.0.7.1
 _ZN3Dtk4Core14DSettingsGroup16staticMetaObjectE@Base 2.0.7.1
 _ZN3Dtk4Core14DSettingsGroup8fromJsonERK7QStringRK11QJsonObject@Base 2.0.7.1
 _ZN3Dtk4Core14DSettingsGroup9parseJsonERK7QStringRK11QJsonObject@Base 2.0.7.1
 _ZN3Dtk4Core14DSettingsGroupC1EP7QObject@Base 2.0.7.1
 _ZN3Dtk4Core14DSettingsGroupC2EP7QObject@Base 2.0.7.1
 _ZN3Dtk4Core14DSettingsGroupD0Ev@Base 2.0.7.1
 _ZN3Dtk4Core14DSettingsGroupD1Ev@Base 2.0.7.1
 _ZN3Dtk4Core14DSettingsGroupD2Ev@Base 2.0.7.1
 _ZN3Dtk4Core14DStandardPaths14findExecutableERK7QStringRK11QStringList@Base 2.0.7.1
 _ZN3Dtk4Core14DStandardPaths16writableLocationEN14QStandardPaths16StandardLocationE@Base 2.0.7.1
 _ZN3Dtk4Core14DStandardPaths17standardLocationsEN14QStandardPaths16StandardLocationE@Base 2.0.7.1
 _ZN3Dtk4Core14DStandardPaths6locateEN14QStandardPaths16StandardLocationERK7QString6QFlagsINS2_12LocateOptionEE@Base 2.0.7.1
 _ZN3Dtk4Core14DStandardPaths7setModeENS1_4ModeE@Base 2.0.7.1
 _ZN3Dtk4Core14DStandardPaths9locateAllEN14QStandardPaths16StandardLocationERK7QString6QFlagsINS2_12LocateOptionEE@Base 2.0.7.1
 _ZN3Dtk4Core14loggerInstanceEv@Base 2.0.7.1
 _ZN3Dtk4Core14parentPathListERK7QString@Base 2.0.7.1
 _ZN3Dtk4Core15ConsoleAppender24ignoreEnvironmentPatternEb@Base 2.0.7.1
 _ZN3Dtk4Core15ConsoleAppender6appendERK9QDateTimeNS0_6Logger8LogLevelEPKciS8_RK7QStringSB_@Base 2.0.7.1
 _ZN3Dtk4Core15ConsoleAppenderC1Ev@Base 2.0.7.1
 _ZN3Dtk4Core15ConsoleAppenderC2Ev@Base 2.0.7.1
 _ZN3Dtk4Core15ConsoleAppenderD0Ev@Base 2.0.7.1
 _ZN3Dtk4Core15ConsoleAppenderD1Ev@Base 2.0.7.1
 _ZN3Dtk4Core15ConsoleAppenderD2Ev@Base 2.0.7.1
 _ZN3Dtk4Core15DSettingsOption11dataChangedERK7QString8QVariant@Base 2.0.7.1
 _ZN3Dtk4Core15DSettingsOption11qt_metacallEN11QMetaObject4CallEiPPv@Base 2.0.7.1
 _ZN3Dtk4Core15DSettingsOption11qt_metacastEPKc@Base 2.0.7.1
 _ZN3Dtk4Core15DSettingsOption12valueChangedE8QVariant@Base 2.0.7.1
 _ZN3Dtk4Core15DSettingsOption14setParentGroupE8QPointerINS0_14DSettingsGroupEE@Base 2.0.7.1
 _ZN3Dtk4Core15DSettingsOption16staticMetaObjectE@Base 2.0.7.1
 _ZN3Dtk4Core15DSettingsOption7setDataERK7QString8QVariant@Base 2.0.7.1
 _ZN3Dtk4Core15DSettingsOption8fromJsonERK7QStringRK11QJsonObject@Base 2.0.7.1
 _ZN3Dtk4Core15DSettingsOption8setValueE8QVariant@Base 2.0.7.1
 _ZN3Dtk4Core15DSettingsOption9parseJsonERK7QStringRK11QJsonObject@Base 2.0.7.1
 _ZN3Dtk4Core15DSettingsOptionC1EP7QObject@Base 2.0.7.1
 _ZN3Dtk4Core15DSettingsOptionC2EP7QObject@Base 2.0.7.1
 _ZN3Dtk4Core15DSettingsOptionD0Ev@Base 2.0.7.1
 _ZN3Dtk4Core15DSettingsOptionD1Ev@Base 2.0.7.1
 _ZN3Dtk4Core15DSettingsOptionD2Ev@Base 2.0.7.1
 _ZN3Dtk4Core15QSettingBackend11doSetOptionERK7QStringRK8QVariant@Base 2.0.7.1
 _ZN3Dtk4Core15QSettingBackend11qt_metacallEN11QMetaObject4CallEiPPv@Base 2.0.7.1
 _ZN3Dtk4Core15QSettingBackend11qt_metacastEPKc@Base 2.0.7.1
 _ZN3Dtk4Core15QSettingBackend16staticMetaObjectE@Base 2.0.7.1
 _ZN3Dtk4Core15QSettingBackend6doSyncEv@Base 2.0.7.1
 _ZN3Dtk4Core15QSettingBackendC1ERK7QStringP7QObject@Base 2.0.7.1
 _ZN3Dtk4Core15QSettingBackendC2ERK7QStringP7QObject@Base 2.0.7.1
 _ZN3Dtk4Core15QSettingBackendD0Ev@Base 2.0.7.1
 _ZN3Dtk4Core15QSettingBackendD1Ev@Base 2.0.7.1
 _ZN3Dtk4Core15QSettingBackendD2Ev@Base 2.0.7.1
 _ZN3Dtk4Core16AbstractAppender15setDetailsLevelENS0_6Logger8LogLevelE@Base 2.0.7.1
 _ZN3Dtk4Core16AbstractAppender15setDetailsLevelERK7QString@Base 2.0.7.1
 _ZN3Dtk4Core16AbstractAppender5writeERK9QDateTimeNS0_6Logger8LogLevelEPKciS8_RK7QStringSB_@Base 2.0.7.1
 _ZN3Dtk4Core16AbstractAppenderC1Ev@Base 2.0.7.1
 _ZN3Dtk4Core16AbstractAppenderC2Ev@Base 2.0.7.1
 _ZN3Dtk4Core16AbstractAppenderD0Ev@Base 2.0.7.1
 _ZN3Dtk4Core16AbstractAppenderD1Ev@Base 2.0.7.1
 _ZN3Dtk4Core16AbstractAppenderD2Ev@Base 2.0.7.1
 _ZN3Dtk4Core16DBaseFileWatcher10fileClosedERK4QUrl@Base 2.0.7.1
 _ZN3Dtk4Core16DBaseFileWatcher11fileDeletedERK4QUrl@Base 2.0.7.1
 _ZN3Dtk4Core16DBaseFileWatcher11ghostSignalERK4QUrlMS1_FvS4_ES4_@Base 2.0.7.1
 _ZN3Dtk4Core16DBaseFileWatcher11ghostSignalERK4QUrlMS1_FvS4_S4_ES4_S4_@Base 2.0.7.1
 _ZN3Dtk4Core16DBaseFileWatcher11qt_metacallEN11QMetaObject4CallEiPPv@Base 2.0.7.1
 _ZN3Dtk4Core16DBaseFileWatcher11qt_metacastEPKc@Base 2.0.7.1
 _ZN3Dtk4Core16DBaseFileWatcher11stopWatcherEv@Base 2.0.7.1
 _ZN3Dtk4Core16DBaseFileWatcher12fileModifiedERK4QUrl@Base 2.0.7.1
 _ZN3Dtk4Core16DBaseFileWatcher12startWatcherEv@Base 2.0.7.1
 _ZN3Dtk4Core16DBaseFileWatcher14restartWatcherEv@Base 2.0.7.1
 _ZN3Dtk4Core16DBaseFileWatcher14subfileCreatedERK4QUrl@Base 2.0.7.1
 _ZN3Dtk4Core16DBaseFileWatcher16staticMetaObjectE@Base 2.0.7.1
 _ZN3Dtk4Core16DBaseFileWatcher20fileAttributeChangedERK4QUrl@Base 2.0.7.1
 _ZN3Dtk4Core16DBaseFileWatcher24setEnabledSubfileWatcherERK4QUrlb@Base 2.0.7.1
 _ZN3Dtk4Core16DBaseFileWatcher9fileMovedERK4QUrlS4_@Base 2.0.7.1
 _ZN3Dtk4Core16DBaseFileWatcherC1ERNS0_23DBaseFileWatcherPrivateERK4QUrlP7QObject@Base 2.0.7.1
 _ZN3Dtk4Core16DBaseFileWatcherC2ERNS0_23DBaseFileWatcherPrivateERK4QUrlP7QObject@Base 2.0.7.1
 _ZN3Dtk4Core16DBaseFileWatcherD0Ev@Base 2.0.7.1
 _ZN3Dtk4Core16DBaseFileWatcherD1Ev@Base 2.0.7.1
 _ZN3Dtk4Core16DBaseFileWatcherD2Ev@Base 2.0.7.1
 _ZN3Dtk4Core16DSettingsBackend11qt_metacallEN11QMetaObject4CallEiPPv@Base 2.0.7.1
 _ZN3Dtk4Core16DSettingsBackend11qt_metacastEPKc@Base 2.0.7.1
 _ZN3Dtk4Core16DSettingsBackend13optionChangedERK7QStringRK8QVariant@Base 2.0.7.1
 _ZN3Dtk4Core16DSettingsBackend16staticMetaObjectE@Base 2.0.7.1
 _ZN3Dtk4Core16DSettingsBackend4syncEv@Base 2.0.7.1
 _ZN3Dtk4Core16DSettingsBackend9setOptionERK7QStringRK8QVariant@Base 2.0.7.1
 _ZN3Dtk4Core16GSettingsBackend11doSetOptionERK7QStringRK8QVariant@Base 2.0.7.1
 _ZN3Dtk4Core16GSettingsBackend11qt_metacallEN11QMetaObject4CallEiPPv@Base 2.0.7.1
 _ZN3Dtk4Core16GSettingsBackend11qt_metacastEPKc@Base 2.0.7.1
 _ZN3Dtk4Core16GSettingsBackend16staticMetaObjectE@Base 2.0.7.1
 _ZN3Dtk4Core16GSettingsBackend6doSyncEv@Base 2.0.7.1
 _ZN3Dtk4Core16GSettingsBackendC1EPNS0_9DSettingsEP7QObject@Base 2.0.7.1
 _ZN3Dtk4Core16GSettingsBackendC2EPNS0_9DSettingsEP7QObject@Base 2.0.7.1
 _ZN3Dtk4Core16GSettingsBackendD0Ev@Base 2.0.7.1
 _ZN3Dtk4Core16GSettingsBackendD1Ev@Base 2.0.7.1
 _ZN3Dtk4Core16GSettingsBackendD2Ev@Base 2.0.7.1
 _ZN3Dtk4Core18DDiskSizeFormatter4rateEi@Base 2.0.7.1
 _ZN3Dtk4Core18DDiskSizeFormatterC1Ev@Base 2.0.7.1
 _ZN3Dtk4Core18DDiskSizeFormatterC2Ev@Base 2.0.7.1
 _ZN3Dtk4Core18DFileSystemWatcher10fileClosedERK7QStringS4_NS1_14QPrivateSignalE@Base 2.0.7.1
 _ZN3Dtk4Core18DFileSystemWatcher10removePathERK7QString@Base 2.0.7.1
 _ZN3Dtk4Core18DFileSystemWatcher11fileCreatedERK7QStringS4_NS1_14QPrivateSignalE@Base 2.0.7.1
 _ZN3Dtk4Core18DFileSystemWatcher11fileDeletedERK7QStringS4_NS1_14QPrivateSignalE@Base 2.0.7.1
 _ZN3Dtk4Core18DFileSystemWatcher11qt_metacallEN11QMetaObject4CallEiPPv@Base 2.0.7.1
 _ZN3Dtk4Core18DFileSystemWatcher11qt_metacastEPKc@Base 2.0.7.1
 _ZN3Dtk4Core18DFileSystemWatcher11removePathsERK11QStringList@Base 2.0.7.1
 _ZN3Dtk4Core18DFileSystemWatcher12fileModifiedERK7QStringS4_NS1_14QPrivateSignalE@Base 2.0.7.1
 _ZN3Dtk4Core18DFileSystemWatcher16staticMetaObjectE@Base 2.0.7.1
 _ZN3Dtk4Core18DFileSystemWatcher20fileAttributeChangedERK7QStringS4_NS1_14QPrivateSignalE@Base 2.0.7.1
 _ZN3Dtk4Core18DFileSystemWatcher7addPathERK7QString@Base 2.0.7.1
 _ZN3Dtk4Core18DFileSystemWatcher8addPathsERK11QStringList@Base 2.0.7.1
 _ZN3Dtk4Core18DFileSystemWatcher9fileMovedERK7QStringS4_S4_S4_NS1_14QPrivateSignalE@Base 2.0.7.1
 _ZN3Dtk4Core18DFileSystemWatcherC1EP7QObject@Base 2.0.7.1
 _ZN3Dtk4Core18DFileSystemWatcherC1ERK11QStringListP7QObject@Base 2.0.7.1
 _ZN3Dtk4Core18DFileSystemWatcherC2EP7QObject@Base 2.0.7.1
 _ZN3Dtk4Core18DFileSystemWatcherC2ERK11QStringListP7QObject@Base 2.0.7.1
 _ZN3Dtk4Core18DFileSystemWatcherD0Ev@Base 2.0.7.1
 _ZN3Dtk4Core18DFileSystemWatcherD1Ev@Base 2.0.7.1
 _ZN3Dtk4Core18DFileSystemWatcherD2Ev@Base 2.0.7.1
 _ZN3Dtk4Core18DTimeUnitFormatterC1Ev@Base 2.0.7.1
 _ZN3Dtk4Core18DTimeUnitFormatterC2Ev@Base 2.0.7.1
 _ZN3Dtk4Core18LoggerTimingHelper5startEPKcz@Base 2.0.7.1
 _ZN3Dtk4Core18LoggerTimingHelper5startERK7QString@Base 2.0.7.1
 _ZN3Dtk4Core18LoggerTimingHelperD1Ev@Base 2.0.7.1
 _ZN3Dtk4Core18LoggerTimingHelperD2Ev@Base 2.0.7.1
 _ZN3Dtk4Core19DFileWatcherManager10fileClosedERK7QString@Base 2.0.7.1
 _ZN3Dtk4Core19DFileWatcherManager11fileDeletedERK7QString@Base 2.0.7.1
 _ZN3Dtk4Core19DFileWatcherManager11qt_metacallEN11QMetaObject4CallEiPPv@Base 2.0.7.1
 _ZN3Dtk4Core19DFileWatcherManager11qt_metacastEPKc@Base 2.0.7.1
 _ZN3Dtk4Core19DFileWatcherManager12fileModifiedERK7QString@Base 2.0.7.1
 _ZN3Dtk4Core19DFileWatcherManager14subfileCreatedERK7QString@Base 2.0.7.1
 _ZN3Dtk4Core19DFileWatcherManager16staticMetaObjectE@Base 2.0.7.1
 _ZN3Dtk4Core19DFileWatcherManager20fileAttributeChangedERK7QString@Base 2.0.7.1
 _ZN3Dtk4Core19DFileWatcherManager3addERK7QString@Base 2.0.7.1
 _ZN3Dtk4Core19DFileWatcherManager6removeERK7QString@Base 2.0.7.1
 _ZN3Dtk4Core19DFileWatcherManager9fileMovedERK7QStringS4_@Base 2.0.7.1
 _ZN3Dtk4Core19DFileWatcherManagerC1EP7QObject@Base 2.0.7.1
 _ZN3Dtk4Core19DFileWatcherManagerC2EP7QObject@Base 2.0.7.1
 _ZN3Dtk4Core19DFileWatcherManagerD0Ev@Base 2.0.7.1
 _ZN3Dtk4Core19DFileWatcherManagerD1Ev@Base 2.0.7.1
 _ZN3Dtk4Core19DFileWatcherManagerD2Ev@Base 2.0.7.1
 _ZN3Dtk4Core19DFileWatcherPrivate10formatPathERK7QString@Base 2.0.7.1
 _ZN3Dtk4Core19DFileWatcherPrivate18_q_handleFileCloseERK7QStringS4_@Base 2.0.7.1
 _ZN3Dtk4Core19DFileWatcherPrivate18_q_handleFileMovedERK7QStringS4_S4_S4_@Base 2.0.7.1
 _ZN3Dtk4Core19DFileWatcherPrivate20_q_handleFileCreatedERK7QStringS4_@Base 2.0.7.1
 _ZN3Dtk4Core19DFileWatcherPrivate20_q_handleFileDeletedERK7QStringS4_@Base 2.0.7.1
 _ZN3Dtk4Core19DFileWatcherPrivate21_q_handleFileModifiedERK7QStringS4_@Base 2.0.7.1
 _ZN3Dtk4Core19DFileWatcherPrivate22filePathToWatcherCountE@Base 2.0.7.1
 _ZN3Dtk4Core19DFileWatcherPrivate29_q_handleFileAttributeChangedERK7QStringS4_@Base 2.0.7.1
 _ZN3Dtk4Core19DFileWatcherPrivate4stopEv@Base 2.0.7.1
 _ZN3Dtk4Core19DFileWatcherPrivate5startEv@Base 2.0.7.1
 _ZN3Dtk4Core19DFileWatcherPrivateD0Ev@Base 2.0.7.1
 _ZN3Dtk4Core19DFileWatcherPrivateD1Ev@Base 2.0.7.1
 _ZN3Dtk4Core19DFileWatcherPrivateD2Ev@Base 2.0.7.1
 _ZN3Dtk4Core19RollingFileAppender14removeOldFilesEv@Base 2.0.7.1
 _ZN3Dtk4Core19RollingFileAppender14setDatePatternENS1_11DatePatternE@Base 2.0.7.1
 _ZN3Dtk4Core19RollingFileAppender14setDatePatternERK7QString@Base 2.0.7.1
 _ZN3Dtk4Core19RollingFileAppender16computeFrequencyEv@Base 2.0.7.1
 _ZN3Dtk4Core19RollingFileAppender16setLogFilesLimitEi@Base 2.0.7.1
 _ZN3Dtk4Core19RollingFileAppender19computeRollOverTimeEv@Base 2.0.7.1
 _ZN3Dtk4Core19RollingFileAppender20setDatePatternStringERK7QString@Base 2.0.7.1
 _ZN3Dtk4Core19RollingFileAppender6appendERK9QDateTimeNS0_6Logger8LogLevelEPKciS8_RK7QStringSB_@Base 2.0.7.1
 _ZN3Dtk4Core19RollingFileAppender8rollOverEv@Base 2.0.7.1
 _ZN3Dtk4Core19RollingFileAppenderC1ERK7QString@Base 2.0.7.1
 _ZN3Dtk4Core19RollingFileAppenderC2ERK7QString@Base 2.0.7.1
 _ZN3Dtk4Core19RollingFileAppenderD0Ev@Base 2.0.7.1
 _ZN3Dtk4Core19RollingFileAppenderD1Ev@Base 2.0.7.1
 _ZN3Dtk4Core19RollingFileAppenderD2Ev@Base 2.0.7.1
 _ZN3Dtk4Core21DSettingsGroupPrivate9parseJsonERK7QStringRK11QJsonObject@Base 2.0.7.1
 _ZN3Dtk4Core22AbstractStringAppender16qCleanupFuncinfoEPKc@Base 2.0.7.1
 _ZN3Dtk4Core22AbstractStringAppender17stripFunctionNameEPKc@Base 2.0.7.1
 _ZN3Dtk4Core22AbstractStringAppender9setFormatERK7QString@Base 2.0.7.1
 _ZN3Dtk4Core22AbstractStringAppenderC1Ev@Base 2.0.7.1
 _ZN3Dtk4Core22AbstractStringAppenderC2Ev@Base 2.0.7.1
 _ZN3Dtk4Core22AbstractStringAppenderD0Ev@Base 2.0.7.1
 _ZN3Dtk4Core22AbstractStringAppenderD1Ev@Base 2.0.7.1
 _ZN3Dtk4Core22AbstractStringAppenderD2Ev@Base 2.0.7.1
 _ZN3Dtk4Core22DAbstractUnitFormatterC1Ev@Base 2.0.7.1
 _ZN3Dtk4Core22DAbstractUnitFormatterC2Ev@Base 2.0.7.1
 _ZN3Dtk4Core22DAbstractUnitFormatterD1Ev@Base 2.0.7.1
 _ZN3Dtk4Core22DAbstractUnitFormatterD2Ev@Base 2.0.7.1
 _ZN3Dtk4Core22DSettingsOptionPrivate9parseJsonERK7QStringRK11QJsonObject@Base 2.0.7.1
 _ZN3Dtk4Core23DBaseFileWatcherPrivate11watcherListE@Base 2.0.7.1
 _ZN3Dtk4Core23DBaseFileWatcherPrivateC1EPNS0_16DBaseFileWatcherE@Base 2.0.7.1
 _ZN3Dtk4Core23DBaseFileWatcherPrivateC2EPNS0_16DBaseFileWatcherE@Base 2.0.7.1
 _ZN3Dtk4Core25DFileSystemWatcherPrivate11removePathsERK11QStringListPS2_S5_@Base 2.0.7.1
 _ZN3Dtk4Core25DFileSystemWatcherPrivate13onFileChangedERK7QStringb@Base 2.0.7.1
 _ZN3Dtk4Core25DFileSystemWatcherPrivate18_q_readFromInotifyEv@Base 2.0.7.1
 _ZN3Dtk4Core25DFileSystemWatcherPrivate18onDirectoryChangedERK7QStringb@Base 2.0.7.1
 _ZN3Dtk4Core25DFileSystemWatcherPrivate8addPathsERK11QStringListPS2_S5_@Base 2.0.7.1
 _ZN3Dtk4Core25DFileSystemWatcherPrivateC1EiPNS0_18DFileSystemWatcherE@Base 2.0.7.1
 _ZN3Dtk4Core25DFileSystemWatcherPrivateC2EiPNS0_18DFileSystemWatcherE@Base 2.0.7.1
 _ZN3Dtk4Core25DFileSystemWatcherPrivateD0Ev@Base 2.0.7.1
 _ZN3Dtk4Core25DFileSystemWatcherPrivateD1Ev@Base 2.0.7.1
 _ZN3Dtk4Core25DFileSystemWatcherPrivateD2Ev@Base 2.0.7.1
 _ZN3Dtk4Core26DFileWatcherManagerPrivateC1EPNS0_19DFileWatcherManagerE@Base 2.0.7.1
 _ZN3Dtk4Core26DFileWatcherManagerPrivateC2EPNS0_19DFileWatcherManagerE@Base 2.0.7.1
 _ZN3Dtk4Core26DFileWatcherManagerPrivateD0Ev@Base 2.0.7.1
 _ZN3Dtk4Core26DFileWatcherManagerPrivateD1Ev@Base 2.0.7.1
 _ZN3Dtk4Core26DFileWatcherManagerPrivateD2Ev@Base 2.0.7.1
 _ZN3Dtk4Core6Logger11writeAssertEPKciS3_S3_@Base 2.0.7.1
 _ZN3Dtk4Core6Logger13levelToStringENS1_8LogLevelE@Base 2.0.7.1
 _ZN3Dtk4Core6Logger14globalInstanceEv@Base 2.0.7.1
 _ZN3Dtk4Core6Logger15levelFromStringERK7QString@Base 2.0.7.1
 _ZN3Dtk4Core6Logger16registerAppenderEPNS0_16AbstractAppenderE@Base 2.0.7.1
 _ZN3Dtk4Core6Logger18setDefaultCategoryERK7QString@Base 2.0.7.1
 _ZN3Dtk4Core6Logger19logToGlobalInstanceERK7QStringb@Base 2.0.7.1
 _ZN3Dtk4Core6Logger24registerCategoryAppenderERK7QStringPNS0_16AbstractAppenderE@Base 2.0.7.1
 _ZN3Dtk4Core6Logger5writeENS1_8LogLevelEPKciS4_S4_@Base 2.0.7.1
 _ZN3Dtk4Core6Logger5writeENS1_8LogLevelEPKciS4_S4_RK7QString@Base 2.0.7.1
 _ZN3Dtk4Core6Logger5writeERK9QDateTimeNS1_8LogLevelEPKciS7_S7_RK7QString@Base 2.0.7.1
 _ZN3Dtk4Core6Logger5writeERK9QDateTimeNS1_8LogLevelEPKciS7_S7_RK7QStringb@Base 2.0.7.1
 _ZN3Dtk4Core6LoggerC1ERK7QString@Base 2.0.7.1
 _ZN3Dtk4Core6LoggerC1Ev@Base 2.0.7.1
 _ZN3Dtk4Core6LoggerC2ERK7QString@Base 2.0.7.1
 _ZN3Dtk4Core6LoggerC2Ev@Base 2.0.7.1
 _ZN3Dtk4Core6LoggerD1Ev@Base 2.0.7.1
 _ZN3Dtk4Core6LoggerD2Ev@Base 2.0.7.1
 _ZN3Dtk4Core7DObjectC1EPS1_@Base 2.0.7.1
 _ZN3Dtk4Core7DObjectC1ERNS0_14DObjectPrivateEPS1_@Base 2.0.7.1
 _ZN3Dtk4Core7DObjectC2EPS1_@Base 2.0.7.1
 _ZN3Dtk4Core7DObjectC2ERNS0_14DObjectPrivateEPS1_@Base 2.0.7.1
 _ZN3Dtk4Core7DObjectD0Ev@Base 2.0.7.1
 _ZN3Dtk4Core7DObjectD1Ev@Base 2.0.7.1
 _ZN3Dtk4Core7DObjectD2Ev@Base 2.0.7.1
 _ZN3Dtk4Core9DSettings10setBackendEPNS0_16DSettingsBackendE@Base 2.0.7.1
 _ZN3Dtk4Core9DSettings11qt_metacallEN11QMetaObject4CallEiPPv@Base 2.0.7.1
 _ZN3Dtk4Core9DSettings11qt_metacastEPKc@Base 2.0.7.1
 _ZN3Dtk4Core9DSettings12fromJsonFileERK7QString@Base 2.0.7.1
 _ZN3Dtk4Core9DSettings12valueChangedERK7QStringRK8QVariant@Base 2.0.7.1
 _ZN3Dtk4Core9DSettings16staticMetaObjectE@Base 2.0.7.1
 _ZN3Dtk4Core9DSettings4syncEv@Base 2.0.7.1
 _ZN3Dtk4Core9DSettings5resetEv@Base 2.0.7.1
 _ZN3Dtk4Core9DSettings8fromJsonERK10QByteArray@Base 2.0.7.1
 _ZN3Dtk4Core9DSettings9loadValueEv@Base 2.0.7.1
 _ZN3Dtk4Core9DSettings9parseJsonERK10QByteArray@Base 2.0.7.1
 _ZN3Dtk4Core9DSettings9setOptionERK7QStringRK8QVariant@Base 2.0.7.1
 _ZN3Dtk4Core9DSettingsC1EP7QObject@Base 2.0.7.1
 _ZN3Dtk4Core9DSettingsC2EP7QObject@Base 2.0.7.1
 _ZN3Dtk4Core9DSettingsD0Ev@Base 2.0.7.1
 _ZN3Dtk4Core9DSettingsD1Ev@Base 2.0.7.1
 _ZN3Dtk4Core9DSettingsD2Ev@Base 2.0.7.1
 _ZN3Dtk4Core9LogDevice8readDataEPcx@Base 2.0.7.1
 _ZN3Dtk4Core9LogDevice9writeDataEPKcx@Base 2.0.7.1
 _ZN3Dtk4Core9LogDeviceD0Ev@Base 2.0.7.1
 _ZN3Dtk4Core9LogDeviceD1Ev@Base 2.0.7.1
 _ZN3Dtk4Core9LogDeviceD2Ev@Base 2.0.7.1
 _ZN3Dtk4Core9qtifyNameERK7QString@Base 2.0.7.1
 (optional=templinst)_ZN4QMapI7QString8QPointerIN3Dtk4Core15DSettingsOptionEEE13detach_helperEv@Base 2.0.7.1
 (optional=templinst)_ZN4QMapI7QStringPN3Dtk4Core12DFileWatcherEE13detach_helperEv@Base 2.0.7.1
 (optional=templinst)_ZN4QMapI7QStringiE13detach_helperEv@Base 2.0.7.1
 (optional=templinst)_ZN4QMapI7QStringiED1Ev@Base 2.0.7.1
 (optional=templinst)_ZN4QMapI7QStringiED2Ev@Base 2.0.7.1
 (optional=templinst)_ZN4QMapI9QDateTime7QStringED1Ev@Base 2.0.7.1
 (optional=templinst)_ZN4QMapI9QDateTime7QStringED2Ev@Base 2.0.7.1
 (optional=templinst)_ZN4QMapIi7QStringED1Ev@Base 2.0.7.1
 (optional=templinst)_ZN4QMapIi7QStringED2Ev@Base 2.0.7.1
 (optional=templinst)_ZN5QHashI7QStringiE11deleteNode2EPN9QHashData4NodeE@Base 2.0.7.1
 (optional=templinst)_ZN5QHashI7QStringiE13detach_helperEv@Base 2.0.7.1
 (optional=templinst)_ZN5QHashI7QStringiE13duplicateNodeEPN9QHashData4NodeEPv@Base 2.0.7.1
 (optional=templinst)_ZN5QHashIi15QHashDummyValueE11deleteNode2EPN9QHashData4NodeE@Base 2.0.7.1
 (optional=templinst)_ZN5QHashIi15QHashDummyValueE13duplicateNodeEPN9QHashData4NodeEPv@Base 2.0.7.1
 (optional=templinst)_ZN5QHashIi7QStringE11deleteNode2EPN9QHashData4NodeE@Base 2.0.7.1
 (optional=templinst)_ZN5QHashIi7QStringE13detach_helperEv@Base 2.0.7.1
 (optional=templinst)_ZN5QHashIi7QStringE13duplicateNodeEPN9QHashData4NodeEPv@Base 2.0.7.1
 (optional=templinst)_ZN5QHashIi7QStringED1Ev@Base 2.0.7.1
 (optional=templinst)_ZN5QHashIi7QStringED2Ev@Base 2.0.7.1
 (optional=templinst)_ZN5QListI5QPairIdiEE18detach_helper_growEii@Base 2.0.7.1
 (optional=templinst)_ZN5QListI5QPairIdiEE6appendERKS1_@Base 2.0.7.1
 (optional=templinst)_ZN5QListI5QPairIdiEED1Ev@Base 2.0.7.1
 (optional=templinst)_ZN5QListI5QPairIdiEED2Ev@Base 2.0.7.1
 (optional=templinst)_ZN5QListI7QStringE13detach_helperEi@Base 2.0.7.1
 (optional=templinst)_ZN5QListI7QStringE18detach_helper_growEii@Base 2.0.7.1
 (optional=templinst)_ZN5QListI7QStringE6appendERKS0_@Base 2.0.7.1
 (optional=templinst)_ZN5QListI7QStringE9removeAllERKS0_@Base 2.0.7.1
 (optional=templinst)_ZN5QListI7QStringEC1ERKS1_@Base 2.0.7.1
 (optional=templinst)_ZN5QListI7QStringEC2ERKS1_@Base 2.0.7.1
 (optional=templinst)_ZN5QListI7QStringED1Ev@Base 2.0.7.1
 (optional=templinst)_ZN5QListI7QStringED2Ev@Base 2.0.7.1
 (optional=templinst)_ZN5QListI8QPointerIN3Dtk4Core14DSettingsGroupEEE13detach_helperEi@Base 2.0.7.1
 (optional=templinst)_ZN5QListI8QPointerIN3Dtk4Core14DSettingsGroupEEE18detach_helper_growEii@Base 2.0.7.1
 (optional=templinst)_ZN5QListI8QPointerIN3Dtk4Core14DSettingsGroupEEE6appendERKS4_@Base 2.0.7.1
 (optional=templinst)_ZN5QListI8QPointerIN3Dtk4Core15DSettingsOptionEEE13detach_helperEi@Base 2.0.7.1
 (optional=templinst)_ZN5QListI8QPointerIN3Dtk4Core15DSettingsOptionEEE18detach_helper_growEii@Base 2.0.7.1
 (optional=templinst)_ZN5QListI8QPointerIN3Dtk4Core15DSettingsOptionEEE6appendERKS4_@Base 2.0.7.1
 (optional=templinst)_ZN5QListI8QPointerIN3Dtk4Core15DSettingsOptionEEED1Ev@Base 2.0.7.1
 (optional=templinst)_ZN5QListI8QPointerIN3Dtk4Core15DSettingsOptionEEED2Ev@Base 2.0.7.1
 (optional=templinst)_ZN5QListI9QFileInfoE13detach_helperEi@Base 2.0.7.1
 (optional=templinst)_ZN5QListI9QFileInfoED1Ev@Base 2.0.7.1
 (optional=templinst)_ZN5QListI9QFileInfoED2Ev@Base 2.0.7.1
 (optional=templinst)_ZN5QListIP13inotify_eventE18detach_helper_growEii@Base 2.0.7.1
 (optional=templinst)_ZN5QListIP13inotify_eventE6appendERKS1_@Base 2.0.7.1
 (optional=templinst)_ZN5QListIP13inotify_eventED1Ev@Base 2.0.7.1
 (optional=templinst)_ZN5QListIP13inotify_eventED2Ev@Base 2.0.7.1
 (optional=templinst)_ZN5QListIPN3Dtk4Core16AbstractAppenderEE18detach_helper_growEii@Base 2.0.7.1
 (optional=templinst)_ZN5QListIPN3Dtk4Core16AbstractAppenderEE6appendERKS3_@Base 2.0.7.1
 (optional=templinst)_ZN5QListIPN3Dtk4Core16AbstractAppenderEEC1ERKS4_@Base 2.0.7.1
 (optional=templinst)_ZN5QListIPN3Dtk4Core16AbstractAppenderEEC2ERKS4_@Base 2.0.7.1
 (optional=templinst)_ZN5QListIPN3Dtk4Core16AbstractAppenderEED1Ev@Base 2.0.7.1
 (optional=templinst)_ZN5QListIPN3Dtk4Core16AbstractAppenderEED2Ev@Base 2.0.7.1
 (optional=templinst)_ZN5QListIPN3Dtk4Core16DBaseFileWatcherEE13detach_helperEi@Base 2.0.7.1
 (optional=templinst)_ZN5QListIPN3Dtk4Core16DBaseFileWatcherEE18detach_helper_growEii@Base 2.0.7.1
 (optional=templinst)_ZN5QListIPN3Dtk4Core16DBaseFileWatcherEE6appendERKS3_@Base 2.0.7.1
 (optional=templinst)_ZN5QListIPN3Dtk4Core16DBaseFileWatcherEE9removeOneERKS3_@Base 2.0.7.1
 (optional=templinst)_ZN5QListIPN3Dtk4Core16DBaseFileWatcherEED1Ev@Base 2.0.7.1
 (optional=templinst)_ZN5QListIPN3Dtk4Core16DBaseFileWatcherEED2Ev@Base 2.0.7.1
 _ZN7QStringD1Ev@Base 2.0.7.1
 _ZN7QStringD2Ev@Base 2.0.7.1
 (optional=templinst)_ZN8QMapDataI7QStringPN3Dtk4Core12DFileWatcherEE7destroyEv@Base 2.0.7.1
 (optional=templinst)_ZN8QMapDataI7QStringPN3Dtk4Core16AbstractAppenderEE7destroyEv@Base 2.0.7.1
 (optional=templinst)_ZN8QMapDataI7QStringbE7destroyEv@Base 2.0.7.1
 (optional=templinst)_ZN8QMapDataI7QStringiE7destroyEv@Base 2.0.7.1
 (optional=templinst)_ZN8QMapDataIi7QStringE7destroyEv@Base 2.0.7.1
 (optional=templinst)_ZN8QMapNodeI7QString8QPointerIN3Dtk4Core14DSettingsGroupEEE14destroySubTreeEv@Base 2.0.7.1
 (optional=templinst)_ZN8QMapNodeI7QString8QPointerIN3Dtk4Core15DSettingsOptionEEE14destroySubTreeEv@Base 2.0.7.1
 (optional=templinst)_ZN8QMapNodeI7QString8QVariantE14destroySubTreeEv@Base 2.0.7.1
 (optional=templinst)_ZN8QMapNodeI7QStringPN3Dtk4Core12DFileWatcherEE14destroySubTreeEv@Base 2.0.7.1
 (optional=templinst)_ZN8QMapNodeI7QStringPN3Dtk4Core16AbstractAppenderEE14destroySubTreeEv@Base 2.0.7.1
 (optional=templinst)_ZN8QMapNodeI7QStringS0_E14destroySubTreeEv@Base 2.0.7.1
 (optional=templinst)_ZN8QMapNodeI7QStringbE14destroySubTreeEv@Base 2.0.7.1
 (optional=templinst)_ZN8QMapNodeI7QStringiE14destroySubTreeEv@Base 2.0.7.1
 (optional=templinst)_ZN8QMapNodeI9QDateTime7QStringE14destroySubTreeEv@Base 2.0.7.1
 (optional=templinst)_ZN8QMapNodeIi7QStringE14destroySubTreeEv@Base 2.0.7.1
 (optional=templinst)_ZN9QtPrivate11QSlotObjectIMN3Dtk4Core12DFileWatcherEFvRK7QStringS6_ENS_4ListIJS6_S6_EEEvE4implEiPNS_15QSlotObjectBaseEP7QObjectPPvPb@Base 2.0.7.1
 (optional=templinst)_ZN9QtPrivate11QSlotObjectIMN3Dtk4Core12DFileWatcherEFvRK7QStringS6_S6_S6_ENS_4ListIJS6_S6_S6_S6_EEEvE4implEiPNS_15QSlotObjectBaseEP7QObjectPPvPb@Base 2.0.7.1
 (optional=templinst)_ZN9QtPrivate11QSlotObjectIMN3Dtk4Core16DSettingsBackendEFvRK7QStringRK8QVariantENS_4ListIJS6_S9_EEEvE4implEiPNS_15QSlotObjectBaseEP7QObjectPPvPb@Base 2.0.7.1
 (optional=templinst)_ZN9QtPrivate11QSlotObjectIMN3Dtk4Core16DSettingsBackendEFvvENS_4ListIJEEEvE4implEiPNS_15QSlotObjectBaseEP7QObjectPPvPb@Base 2.0.7.1
 _ZN9QtPrivate8RefCount3refEv@Base 2.0.7.1
 _ZNK3Dtk4Core12DFileWatcher10metaObjectEv@Base 2.0.7.1
 _ZNK3Dtk4Core12FileAppender4sizeEv@Base 2.0.7.1
 _ZNK3Dtk4Core12FileAppender8fileNameEv@Base 2.0.7.1
 _ZNK3Dtk4Core14DSettingsGroup10childGroupERK7QString@Base 2.0.7.1
 _ZNK3Dtk4Core14DSettingsGroup10metaObjectEv@Base 2.0.7.1
 _ZNK3Dtk4Core14DSettingsGroup11childGroupsEv@Base 2.0.7.1
 _ZNK3Dtk4Core14DSettingsGroup11parentGroupEv@Base 2.0.7.1
 _ZNK3Dtk4Core14DSettingsGroup12childOptionsEv@Base 2.0.7.1
 _ZNK3Dtk4Core14DSettingsGroup3keyEv@Base 2.0.7.1
 _ZNK3Dtk4Core14DSettingsGroup4nameEv@Base 2.0.7.1
 _ZNK3Dtk4Core14DSettingsGroup6optionERK7QString@Base 2.0.7.1
 _ZNK3Dtk4Core14DSettingsGroup7optionsEv@Base 2.0.7.1
 _ZNK3Dtk4Core14DSettingsGroup8isHiddenEv@Base 2.0.7.1
 _ZNK3Dtk4Core15ConsoleAppender6formatEv@Base 2.0.7.1
 _ZNK3Dtk4Core15DSettingsOption10metaObjectEv@Base 2.0.7.1
 _ZNK3Dtk4Core15DSettingsOption11parentGroupEv@Base 2.0.7.1
 _ZNK3Dtk4Core15DSettingsOption12defaultValueEv@Base 2.0.7.1
 _ZNK3Dtk4Core15DSettingsOption3keyEv@Base 2.0.7.1
 _ZNK3Dtk4Core15DSettingsOption4dataERK7QString@Base 2.0.7.1
 _ZNK3Dtk4Core15DSettingsOption4nameEv@Base 2.0.7.1
 _ZNK3Dtk4Core15DSettingsOption5valueEv@Base 2.0.7.1
 _ZNK3Dtk4Core15DSettingsOption8canResetEv@Base 2.0.7.1
 _ZNK3Dtk4Core15DSettingsOption8isHiddenEv@Base 2.0.7.1
 _ZNK3Dtk4Core15DSettingsOption8viewTypeEv@Base 2.0.7.1
 _ZNK3Dtk4Core15QSettingBackend10metaObjectEv@Base 2.0.7.1
 _ZNK3Dtk4Core15QSettingBackend4keysEv@Base 2.0.7.1
 _ZNK3Dtk4Core15QSettingBackend9getOptionERK7QString@Base 2.0.7.1
 _ZNK3Dtk4Core16AbstractAppender12detailsLevelEv@Base 2.0.7.1
 _ZNK3Dtk4Core16DBaseFileWatcher10metaObjectEv@Base 2.0.7.1
 _ZNK3Dtk4Core16DBaseFileWatcher7fileUrlEv@Base 2.0.7.1
 _ZNK3Dtk4Core16DSettingsBackend10metaObjectEv@Base 2.0.7.1
 _ZNK3Dtk4Core16GSettingsBackend10metaObjectEv@Base 2.0.7.1
 _ZNK3Dtk4Core16GSettingsBackend4keysEv@Base 2.0.7.1
 _ZNK3Dtk4Core16GSettingsBackend9getOptionERK7QString@Base 2.0.7.1
 _ZNK3Dtk4Core17CuteMessageLogger5writeEPKcz@Base 2.0.7.1
 _ZNK3Dtk4Core17CuteMessageLogger5writeERK7QString@Base 2.0.7.1
 _ZNK3Dtk4Core17CuteMessageLogger5writeEv@Base 2.0.7.1
 _ZNK3Dtk4Core18DDiskSizeFormatter15unitConvertRateEi@Base 2.0.7.1
 _ZNK3Dtk4Core18DDiskSizeFormatter7unitMaxEv@Base 2.0.7.1
 _ZNK3Dtk4Core18DDiskSizeFormatter7unitMinEv@Base 2.0.7.1
 _ZNK3Dtk4Core18DDiskSizeFormatter7unitStrEi@Base 2.0.7.1
 _ZNK3Dtk4Core18DFileSystemWatcher10metaObjectEv@Base 2.0.7.1
 _ZNK3Dtk4Core18DFileSystemWatcher11directoriesEv@Base 2.0.7.1
 _ZNK3Dtk4Core18DFileSystemWatcher5filesEv@Base 2.0.7.1
 _ZNK3Dtk4Core18DTimeUnitFormatter15unitConvertRateEi@Base 2.0.7.1
 _ZNK3Dtk4Core18DTimeUnitFormatter7unitMaxEv@Base 2.0.7.1
 _ZNK3Dtk4Core18DTimeUnitFormatter7unitMinEv@Base 2.0.7.1
 _ZNK3Dtk4Core18DTimeUnitFormatter7unitStrEi@Base 2.0.7.1
 _ZNK3Dtk4Core19DFileWatcherManager10metaObjectEv@Base 2.0.7.1
 _ZNK3Dtk4Core19RollingFileAppender11datePatternEv@Base 2.0.7.1
 _ZNK3Dtk4Core19RollingFileAppender13logFilesLimitEv@Base 2.0.7.1
 _ZNK3Dtk4Core19RollingFileAppender17datePatternStringEv@Base 2.0.7.1
 _ZNK3Dtk4Core22AbstractStringAppender15formattedStringERK9QDateTimeNS0_6Logger8LogLevelEPKciS8_RK7QStringSB_@Base 2.0.7.1
 _ZNK3Dtk4Core22AbstractStringAppender6formatEv@Base 2.0.7.1
 _ZNK3Dtk4Core22DAbstractUnitFormatter12unitValueMaxEi@Base 2.0.7.1
 _ZNK3Dtk4Core22DAbstractUnitFormatter12unitValueMinEi@Base 2.0.7.1
 _ZNK3Dtk4Core22DAbstractUnitFormatter16formatAsUnitListEdi@Base 2.0.7.1
 _ZNK3Dtk4Core22DAbstractUnitFormatter6formatEdi@Base 2.0.7.1
 _ZNK3Dtk4Core22DAbstractUnitFormatter8formatAsEdii@Base 2.0.7.1
 _ZNK3Dtk4Core25DFileSystemWatcherPrivate13getPathFromIDEi@Base 2.0.7.1
 _ZNK3Dtk4Core6Logger15defaultCategoryEv@Base 2.0.7.1
 _ZNK3Dtk4Core9DSettings10metaObjectEv@Base 2.0.7.1
 _ZNK3Dtk4Core9DSettings4keysEv@Base 2.0.7.1
 _ZNK3Dtk4Core9DSettings4metaEv@Base 2.0.7.1
 _ZNK3Dtk4Core9DSettings5groupERK7QString@Base 2.0.7.1
 _ZNK3Dtk4Core9DSettings5valueERK7QString@Base 2.0.7.1
 _ZNK3Dtk4Core9DSettings6groupsEv@Base 2.0.7.1
 _ZNK3Dtk4Core9DSettings6optionERK7QString@Base 2.0.7.1
 _ZNK3Dtk4Core9DSettings7optionsEv@Base 2.0.7.1
 _ZNK3Dtk4Core9DSettings9getOptionERK7QString@Base 2.0.7.1
 _ZNK3Dtk4Core9DSettings9groupKeysEv@Base 2.0.7.1
 (optional=templinst)_ZNK4QMapI7QString8QPointerIN3Dtk4Core15DSettingsOptionEEE6valuesEv@Base 2.0.7.1
 (optional=templinst)_ZNK4QMapI7QStringPN3Dtk4Core16AbstractAppenderEE6valuesERKS0_@Base 2.0.7.1
 (optional=templinst)_ZNK5QHashI7QStringiE8findNodeERKS0_Pj@Base 2.0.7.1
 (optional=templinst)_ZNK5QHashIi15QHashDummyValueE8findNodeERKij@Base 2.0.7.1
 (optional=templinst)_ZNK5QHashIi7QStringE8findNodeERKij@Base 2.0.7.1
 (optional=templinst)_ZNK8QMapDataI7QString8QPointerIN3Dtk4Core14DSettingsGroupEEE8findNodeERKS0_@Base 2.0.7.1
 (optional=templinst)_ZNK8QMapDataI7QString8QPointerIN3Dtk4Core15DSettingsOptionEEE8findNodeERKS0_@Base 2.0.7.1
 (optional=templinst)_ZNK8QMapDataI7QString8QVariantE8findNodeERKS0_@Base 2.0.7.1
 (optional=templinst)_ZNK8QMapDataI7QStringPN3Dtk4Core12DFileWatcherEE8findNodeERKS0_@Base 2.0.7.1
 (optional=templinst)_ZNK8QMapDataI7QStringiE8findNodeERKS0_@Base 2.0.7.1
 (optional=templinst)_ZNK8QMapNodeI7QString8QPointerIN3Dtk4Core14DSettingsGroupEEE4copyEP8QMapDataIS0_S5_E@Base 2.0.7.1
 (optional=templinst)_ZNK8QMapNodeI7QString8QPointerIN3Dtk4Core15DSettingsOptionEEE4copyEP8QMapDataIS0_S5_E@Base 2.0.7.1
 (optional=templinst)_ZNK8QMapNodeI7QString8QVariantE4copyEP8QMapDataIS0_S1_E@Base 2.0.7.1
 (optional=templinst)_ZNK8QMapNodeI7QStringPN3Dtk4Core12DFileWatcherEE4copyEP8QMapDataIS0_S4_E@Base 2.0.7.1
 (optional=templinst)_ZNK8QMapNodeI7QStringPN3Dtk4Core16AbstractAppenderEE4copyEP8QMapDataIS0_S4_E@Base 2.0.7.1
 (optional=templinst)_ZNK8QMapNodeI7QStringS0_E4copyEP8QMapDataIS0_S0_E@Base 2.0.7.1
 (optional=templinst)_ZNK8QMapNodeI7QStringbE4copyEP8QMapDataIS0_bE@Base 2.0.7.1
 (optional=templinst)_ZNK8QMapNodeI7QStringiE4copyEP8QMapDataIS0_iE@Base 2.0.7.1
 (optional=templinst)_ZNK8QMapNodeI9QDateTime7QStringE4copyEP8QMapDataIS0_S1_E@Base 2.0.7.1
 (optional=templinst)_ZNK8QMapNodeIi7QStringE4copyEP8QMapDataIiS0_E@Base 2.0.7.1
 (optional=templinst)_ZNKSt5ctypeIcE8do_widenEc@Base 2.0.7.1
 _ZTIN3Dtk4Core12DFileWatcherE@Base 2.0.7.1
 _ZTIN3Dtk4Core12FileAppenderE@Base 2.0.7.1
 _ZTIN3Dtk4Core14DObjectPrivateE@Base 2.0.7.1
 _ZTIN3Dtk4Core14DSettingsGroupE@Base 2.0.7.1
 _ZTIN3Dtk4Core15ConsoleAppenderE@Base 2.0.7.1
 _ZTIN3Dtk4Core15DSettingsOptionE@Base 2.0.7.1
 _ZTIN3Dtk4Core15QSettingBackendE@Base 2.0.7.1
 _ZTIN3Dtk4Core16AbstractAppenderE@Base 2.0.7.1
 _ZTIN3Dtk4Core16DBaseFileWatcherE@Base 2.0.7.1
 _ZTIN3Dtk4Core16DSettingsBackendE@Base 2.0.7.1
 _ZTIN3Dtk4Core16GSettingsBackendE@Base 2.0.7.1
 _ZTIN3Dtk4Core18DDiskSizeFormatterE@Base 2.0.7.1
 _ZTIN3Dtk4Core18DFileSystemWatcherE@Base 2.0.7.1
 _ZTIN3Dtk4Core18DTimeUnitFormatterE@Base 2.0.7.1
 _ZTIN3Dtk4Core19DFileWatcherManagerE@Base 2.0.7.1
 _ZTIN3Dtk4Core19DFileWatcherPrivateE@Base 2.0.7.1
 _ZTIN3Dtk4Core19RollingFileAppenderE@Base 2.0.7.1
 _ZTIN3Dtk4Core22AbstractStringAppenderE@Base 2.0.7.1
 _ZTIN3Dtk4Core22DAbstractUnitFormatterE@Base 2.0.7.1
 _ZTIN3Dtk4Core23DBaseFileWatcherPrivateE@Base 2.0.7.1
 _ZTIN3Dtk4Core25DFileSystemWatcherPrivateE@Base 2.0.7.1
 _ZTIN3Dtk4Core26DFileWatcherManagerPrivateE@Base 2.0.7.1
 _ZTIN3Dtk4Core7DObjectE@Base 2.0.7.1
 _ZTIN3Dtk4Core9DSettingsE@Base 2.0.7.1
 _ZTIN3Dtk4Core9LogDeviceE@Base 2.0.7.1
 _ZTSN3Dtk4Core12DFileWatcherE@Base 2.0.7.1
 _ZTSN3Dtk4Core12FileAppenderE@Base 2.0.7.1
 _ZTSN3Dtk4Core14DObjectPrivateE@Base 2.0.7.1
 _ZTSN3Dtk4Core14DSettingsGroupE@Base 2.0.7.1
 _ZTSN3Dtk4Core15ConsoleAppenderE@Base 2.0.7.1
 _ZTSN3Dtk4Core15DSettingsOptionE@Base 2.0.7.1
 _ZTSN3Dtk4Core15QSettingBackendE@Base 2.0.7.1
 _ZTSN3Dtk4Core16AbstractAppenderE@Base 2.0.7.1
 _ZTSN3Dtk4Core16DBaseFileWatcherE@Base 2.0.7.1
 _ZTSN3Dtk4Core16DSettingsBackendE@Base 2.0.7.1
 _ZTSN3Dtk4Core16GSettingsBackendE@Base 2.0.7.1
 _ZTSN3Dtk4Core18DDiskSizeFormatterE@Base 2.0.7.1
 _ZTSN3Dtk4Core18DFileSystemWatcherE@Base 2.0.7.1
 _ZTSN3Dtk4Core18DTimeUnitFormatterE@Base 2.0.7.1
 _ZTSN3Dtk4Core19DFileWatcherManagerE@Base 2.0.7.1
 _ZTSN3Dtk4Core19DFileWatcherPrivateE@Base 2.0.7.1
 _ZTSN3Dtk4Core19RollingFileAppenderE@Base 2.0.7.1
 _ZTSN3Dtk4Core22AbstractStringAppenderE@Base 2.0.7.1
 _ZTSN3Dtk4Core22DAbstractUnitFormatterE@Base 2.0.7.1
 _ZTSN3Dtk4Core23DBaseFileWatcherPrivateE@Base 2.0.7.1
 _ZTSN3Dtk4Core25DFileSystemWatcherPrivateE@Base 2.0.7.1
 _ZTSN3Dtk4Core26DFileWatcherManagerPrivateE@Base 2.0.7.1
 _ZTSN3Dtk4Core7DObjectE@Base 2.0.7.1
 _ZTSN3Dtk4Core9DSettingsE@Base 2.0.7.1
 _ZTSN3Dtk4Core9LogDeviceE@Base 2.0.7.1
 _ZTVN3Dtk4Core12DFileWatcherE@Base 2.0.7.1
 _ZTVN3Dtk4Core12FileAppenderE@Base 2.0.7.1
 _ZTVN3Dtk4Core14DObjectPrivateE@Base 2.0.7.1
 _ZTVN3Dtk4Core14DSettingsGroupE@Base 2.0.7.1
 _ZTVN3Dtk4Core15ConsoleAppenderE@Base 2.0.7.1
 _ZTVN3Dtk4Core15DSettingsOptionE@Base 2.0.7.1
 _ZTVN3Dtk4Core15QSettingBackendE@Base 2.0.7.1
 _ZTVN3Dtk4Core16AbstractAppenderE@Base 2.0.7.1
 _ZTVN3Dtk4Core16DBaseFileWatcherE@Base 2.0.7.1
 _ZTVN3Dtk4Core16DSettingsBackendE@Base 2.0.7.1
 _ZTVN3Dtk4Core16GSettingsBackendE@Base 2.0.7.1
 _ZTVN3Dtk4Core18DDiskSizeFormatterE@Base 2.0.7.1
 _ZTVN3Dtk4Core18DFileSystemWatcherE@Base 2.0.7.1
 _ZTVN3Dtk4Core18DTimeUnitFormatterE@Base 2.0.7.1
 _ZTVN3Dtk4Core19DFileWatcherManagerE@Base 2.0.7.1
 _ZTVN3Dtk4Core19DFileWatcherPrivateE@Base 2.0.7.1
 _ZTVN3Dtk4Core19RollingFileAppenderE@Base 2.0.7.1
 _ZTVN3Dtk4Core22AbstractStringAppenderE@Base 2.0.7.1
 _ZTVN3Dtk4Core22DAbstractUnitFormatterE@Base 2.0.7.1
 _ZTVN3Dtk4Core23DBaseFileWatcherPrivateE@Base 2.0.7.1
 _ZTVN3Dtk4Core25DFileSystemWatcherPrivateE@Base 2.0.7.1
 _ZTVN3Dtk4Core26DFileWatcherManagerPrivateE@Base 2.0.7.1
 _ZTVN3Dtk4Core7DObjectE@Base 2.0.7.1
 _ZTVN3Dtk4Core9DSettingsE@Base 2.0.7.1
 _ZTVN3Dtk4Core9LogDeviceE@Base 2.0.7.1
 _ZZN3Dtk4Core11DLogManager8instanceEvE8instance@Base 2.0.7.1
 (optional=templinst)_ZZN9QtPrivate15ConnectionTypesINS_4ListIJRK7QStringRK8QVariantEEELb1EE5typesEvE1t@Base 2.0.7.1
 (c++)"non-virtual thunk to Dtk::Core::DBaseFileWatcher::~DBaseFileWatcher()@Base" 2.0.7.1
 (c++)"non-virtual thunk to Dtk::Core::DFileSystemWatcher::~DFileSystemWatcher()@Base" 2.0.7.1
 (c++)"non-virtual thunk to Dtk::Core::DFileWatcher::~DFileWatcher()@Base" 2.0.7.1
 (c++)"non-virtual thunk to Dtk::Core::DFileWatcherManager::~DFileWatcherManager()@Base" 2.0.7.1
